"File: main.c        Assembler  Version HGASM0202      Page 1


   1  0000              ; Generated by holtek-gcc v3.19, Fri Mar 08 10:39:06 2024
   2  0000              ; 
   3  0000              ; Configuration:
   4  0000              ;       with long instruction
   5  0000              ;       Single ROM, Multi-RAM
   6  0000              ;       bits_per_rom_unit:16
   7  0000              ;       with mp1
   8  0000              ;       with tbhp, address(0x9)
   9  0000              ;          Use tabrd-const
  10  0000              ;       
  11  0000              ; SFR address of long-instruction arch:
  12  0000              ;    mp0 = -1,1,0
  13  0000              ;    mp1 = 4,3,2
  14  0000              ;    mp2 = 14,13,12
  15  0000              ;    tbp = 9,7,8
  16  0000              ;    acc = 5
  17  0000              ;    pcl = 6
  18  0000              ;    status = 10
  19  0000              ;    bp = 11
  20  0000              ;    intc = 16
  21  0000              ;       
  22  0000              ;       
  23  0000              ; use 'tabrdc' instead of 'tabrd'
  24  0000              ;       
  25  0000              
  26  0000              #pragma translator "holtek-gcc 4.6.4" "3.19" "build 20130711"
  27  0000              ; Rebuild 718
  28  0000              
  29  0000              ir equ [2]
  30  0000              mp equ [3]
  31  0000              sbp equ [4]
  32  0000              acc equ [5]
  33  0000              bp equ [11]
  34  0000              tblp equ [7]
  35  0000              tbhp equ [9]
  36  0000              status equ [10]
  37  0000              c equ [10].0
  38  0000              ac equ [10].1
  39  0000              z equ [10].2
  40  0000              ov equ [10].3
  41  0000              cz equ [10].6
  42  0000              sc equ [10].7
  43  0000              intc equ [16]
  44  0000              
  45  0000              extern ra:byte
  46  0000              extern rb:byte
  47  0000              extern rc:byte
  48  0000              extern rd:byte
  49  0000              extern re:byte
  50  0000              extern rf:byte
  51  0000              extern rg:byte
  52  0000              extern rh:byte
  53  0000              extern _Crom2Prom:near
  54  0000              extern _Crom2PromNext:near
  55  0000              
  56  0000              RAMBANK 0 @BITDATASEC, @BITDATASEC1
  57  0000              @HCCINIT	.section 'data'
  58  0000              @HCCINIT0	.section 'data'
  59  0000              @BITDATASEC	 .section 'data'
"File: main.ASM      Assembler  Version HGASM0202      Page 2

  60  0000              @BITDATASEC1	 .section 'data'
  61  0000              
  62  0000              #pragma debug scope 1 1
  63  0000              	extern __DELAY3:near
  64  0000              	extern __DELAYX3:near
  65  0000              	extern __DELAYX6:near
  66  0000              	extern __DELAYY5:near
  67  0000              	extern __DELAYY3:near
  68  0000              	extern _builtin_holtek_delay_2:byte
  69  0000              @crom	.section 'crom'
  70  0000              _LC0:
  71  0000              	db 07ch,02dh,02dh,02dh,02dh,02dh,02dh,02dh,02dh,02dh
  72  0005              	db 02dh,02dh,02dh,02dh,02dh,07ch,00h
  73  0009              @crom	.section 'crom'
  74  0009              _LC1:
  75  0009              	db 07ch,052h,065h,06dh,06fh,074h,065h,020h,045h,06dh
  76  000E              	db 075h,06ch,061h,074h,072h,07ch,00h
  77  0011              @crom	.section 'crom'
  78  0011              _LC2:
  79  0011              	db 07ch,05fh,05fh,05fh,05fh,05fh,05fh,05fh,05fh,05fh
  80  0016              	db 05fh,05fh,05fh,05fh,05fh,07ch,00h
  81  001A              @crom	.section 'crom'
  82  001A              _LC3:
  83  001A              	db 052h,046h,020h,050h,06fh,077h,065h,072h,03ah,04fh
  84  001F              	db 046h,046h,00h
  85  0020              @crom	.section 'crom'
  86  0020              _LC4:
  87  0020              	db 04bh,065h,079h,020h,050h,072h,065h,073h,073h,065h
  88  0025              	db 064h,03ah,02ah,00h
  89  0027              ___pc equ [57]
  90  0027              @crom	.section 'crom'
  91  0027              _LC5:
  92  0027              	db 052h,046h,020h,050h,06fh,077h,065h,072h,03ah,04fh
  93  002C              	db 04eh,020h,00h
  94  002E              @crom	.section 'crom'
  95  002E              _LC6:
  96  002E              	db 04bh,065h,079h,020h,050h,072h,065h,073h,073h,065h
  97  0033              	db 064h,03ah,00h
  98  0034              public _main
  99  0034              #pragma debug scope 2 1

   9  0034              #line 9 "d:\project\remote\main.c"
   9  0034              IFDEF WITH_DEFAULT_STARTUP
   9  0034              extern _main_initial0:near
   9  0034              extern _main_startup:near
   9  0034              ENDIF
   9  0034              
   9  0034              ROMBANK 0 @start
   9  0000              @start .section com_l 'code'
   9  0000              _main_startup1:
   9  0000              @start .section com_e 'code'
   9  0000  2800     R  	jmp _main
   9  0001              
   9  0000              _main .section 'code'
   9  0000              _main proc
   9  0000  00              local _main_2 db 1 dup(?)
   9  0001              #pragma debug variable 8 2 _main_2+0 "inuseRemote"
  12  0001              #line 12 "d:\project\remote\main.c"
  12  0000  2000     E  	call _initSystem
  14  0001              #line 14 "d:\project\remote\main.c"
"File: main.c        Assembler  Version HGASM0202      Page 3

  14  0001  2000     E  	call _initGPIO
  15  0002              #line 15 "d:\project\remote\main.c"
  15  0002  2000     E  	call _ste2007_init
  16  0003              #line 16 "d:\project\remote\main.c"
  16  0003  2000     E  	call _initTimer
  18  0004              #line 18 "d:\project\remote\main.c"
  18  0004  0F00     R  	mov a,low offset _LC0
  18  0005  0080     E  	mov _ste2007_putText_2[4],a
  18  0006  0F00     R  	mov a,high offset _LC0
  18  0007  0080     E  	mov _ste2007_putText_2[5],a
  18  0008  1F00     E  	clr _ste2007_putText_2[2]
  18  0009  1F00     E  	clr _ste2007_putText_2[3]
  18  000A  1F00     E  	clr _ste2007_putText_2[0]
  18  000B  1F00     E  	clr _ste2007_putText_2[1]
  18  000C  2000     E  	call _ste2007_putText
  19  000D              #line 19 "d:\project\remote\main.c"
  19  000D  0F00     R  	mov a,low offset _LC1
  19  000E  0080     E  	mov _ste2007_putText_2[4],a
  19  000F  0F00     R  	mov a,high offset _LC1
  19  0010  0080     E  	mov _ste2007_putText_2[5],a
  19  0011  0F01        	mov a,1
  19  0012  0080     E  	mov _ste2007_putText_2[2],a
  19  0013  1F00     E  	clr _ste2007_putText_2[3]
  19  0014  1F00     E  	clr _ste2007_putText_2[0]
  19  0015  1F00     E  	clr _ste2007_putText_2[1]
  19  0016  2000     E  	call _ste2007_putText
  20  0017              #line 20 "d:\project\remote\main.c"
  20  0017  0F00     R  	mov a,low offset _LC2
  20  0018  0080     E  	mov _ste2007_putText_2[4],a
  20  0019  0F00     R  	mov a,high offset _LC2
  20  001A  0080     E  	mov _ste2007_putText_2[5],a
  20  001B  0F02        	mov a,2
  20  001C  0080     E  	mov _ste2007_putText_2[2],a
  20  001D  1F00     E  	clr _ste2007_putText_2[3]
  20  001E  1F00     E  	clr _ste2007_putText_2[0]
  20  001F  1F00     E  	clr _ste2007_putText_2[1]
  20  0020  2000     E  	call _ste2007_putText
  21  0021              #line 21 "d:\project\remote\main.c"
  21  0021  0F00     R  	mov a,low offset _LC3
  21  0022  0080     E  	mov _ste2007_putText_2[4],a
  21  0023  0F00     R  	mov a,high offset _LC3
  21  0024  0080     E  	mov _ste2007_putText_2[5],a
  21  0025  0F04        	mov a,4
  21  0026  0080     E  	mov _ste2007_putText_2[2],a
  21  0027  1F00     E  	clr _ste2007_putText_2[3]
  21  0028  1F00     E  	clr _ste2007_putText_2[0]
  21  0029  1F00     E  	clr _ste2007_putText_2[1]
  21  002A  2000     E  	call _ste2007_putText
  22  002B              #line 22 "d:\project\remote\main.c"
  22  002B  0F00     R  	mov a,low offset _LC4
  22  002C  0080     E  	mov _ste2007_putText_2[4],a
  22  002D  0F00     R  	mov a,high offset _LC4
  22  002E  0080     E  	mov _ste2007_putText_2[5],a
  22  002F  0F05        	mov a,5
  22  0030  0080     E  	mov _ste2007_putText_2[2],a
  22  0031  1F00     E  	clr _ste2007_putText_2[3]
  22  0032  1F00     E  	clr _ste2007_putText_2[0]
  22  0033  1F00     E  	clr _ste2007_putText_2[1]
  22  0034  2000     E  	call _ste2007_putText
  22  0035              _L8:
"File: main.c        Assembler  Version HGASM0202      Page 4

  27  0035              #line 27 "d:\project\remote\main.c"
  27  0035  3FB9        	sz [57].7
  27  0036  2800     R  	jmp _L2
  28  0037              #line 28 "d:\project\remote\main.c"
  28  0037  0700     R  	mov a,___sendingStatus_2118[0]
  28  0038  0A02        	sub a,2
  28  0039  3D0A        	sz z
  28  003A  2800     R  	jmp _L4
  29  003B              #line 29 "d:\project\remote\main.c"
  29  003B  0F01        	mov a,1
  29  003C  0080     R  	mov ___sendingStatus_2118[0],a
  30  003D              #line 30 "d:\project\remote\main.c"
  30  003D  0FF4        	mov a,-12
  30  003E  0080     E  	mov _msDelay_2[0],a
  30  003F  0F01        	mov a,1
  30  0040  0080     E  	mov _msDelay_2[1],a
  30  0041  2000     E  	call _msDelay
  32  0042              #line 32 "d:\project\remote\main.c"
  32  0042  3B39        	snz [57].6
  32  0043  2800     R  	jmp _L9
  34  0044              #line 34 "d:\project\remote\main.c"
  34  0044  3AB9        	snz [57].5
  34  0045  2800     R  	jmp _L10
  36  0046              #line 36 "d:\project\remote\main.c"
  36  0046  3A39        	snz [57].4
  36  0047  2800     R  	jmp _L11
  38  0048              #line 38 "d:\project\remote\main.c"
  38  0048  39B9        	snz [57].3
  38  0049  2800     R  	jmp _L12
  31  004A              #line 31 "d:\project\remote\main.c"
  31  004A  0FAA        	mov a,170
  31  004B  0080     R  	mov _main_2[0],a
  31  004C  2800     R  	jmp _L5
  31  004D              _L9:
  33  004D              #line 33 "d:\project\remote\main.c"
  33  004D  1F00     R  	clr _main_2[0]
  33  004E  2800     R  	jmp _L5
  33  004F              _L10:
  35  004F              #line 35 "d:\project\remote\main.c"
  35  004F  0F01        	mov a,1
  35  0050  0080     R  	mov _main_2[0],a
  35  0051  2800     R  	jmp _L5
  35  0052              _L11:
  37  0052              #line 37 "d:\project\remote\main.c"
  37  0052  0F02        	mov a,2
  37  0053  0080     R  	mov _main_2[0],a
  37  0054  2800     R  	jmp _L5
  37  0055              _L12:
  39  0055              #line 39 "d:\project\remote\main.c"
  39  0055  0F03        	mov a,3
  39  0056  0080     R  	mov _main_2[0],a
  39  0057              _L5:
  41  0057              #line 41 "d:\project\remote\main.c"
  41  0057  0F00     R  	mov a,low offset _LC5
  41  0058  0080     E  	mov _ste2007_putText_2[4],a
  41  0059  0F00     R  	mov a,high offset _LC5
  41  005A  0080     E  	mov _ste2007_putText_2[5],a
  41  005B  0F04        	mov a,4
  41  005C  0080     E  	mov _ste2007_putText_2[2],a
  41  005D  1F00     E  	clr _ste2007_putText_2[3]
"File: main.c        Assembler  Version HGASM0202      Page 5

  41  005E  1F00     E  	clr _ste2007_putText_2[0]
  41  005F  1F00     E  	clr _ste2007_putText_2[1]
  41  0060  2000     E  	call _ste2007_putText
  43  0061              #line 43 "d:\project\remote\main.c"
  43  0061  0700     R  	mov a,_main_2[0]
  43  0062  0AAA        	sub a,170
  43  0063  3D0A        	sz z
  43  0064  2800     R  	jmp _L4
  44  0065              #line 44 "d:\project\remote\main.c"
  44  0065  0700     R  	mov a,_main_2[0]
  44  0066  2000     E  	call _startSendCode
  46  0067              #line 46 "d:\project\remote\main.c"
  46  0067  0F02        	mov a,2
  46  0068  0080     R  	mov ___sendingStatus_2118[0],a
  47  0069              #line 47 "d:\project\remote\main.c"
  47  0069  0F00     R  	mov a,low offset _LC6
  47  006A  0080     E  	mov _ste2007_putText_2[4],a
  47  006B  0F00     R  	mov a,high offset _LC6
  47  006C  0080     E  	mov _ste2007_putText_2[5],a
  47  006D  0F05        	mov a,5
  47  006E  0080     E  	mov _ste2007_putText_2[2],a
  47  006F  1F00     E  	clr _ste2007_putText_2[3]
  47  0070  1F00     E  	clr _ste2007_putText_2[0]
  47  0071  1F00     E  	clr _ste2007_putText_2[1]
  47  0072  2000     E  	call _ste2007_putText
  48  0073              #line 48 "d:\project\remote\main.c"
  48  0073  0700     R  	mov a,_main_2[0]
  48  0074  0B31        	add a,49
  48  0075  0080     E  	mov _ste2007_putchar_2[4],a
  48  0076  0F05        	mov a,5
  48  0077  0080     E  	mov _ste2007_putchar_2[2],a
  48  0078  1F00     E  	clr _ste2007_putchar_2[3]
  48  0079  0F0C        	mov a,12
  48  007A  0080     E  	mov _ste2007_putchar_2[0],a
  48  007B  1F00     E  	clr _ste2007_putchar_2[1]
  48  007C  2000     E  	call _ste2007_putchar
  48  007D  2800     R  	jmp _L4
  48  007E              _L2:
  53  007E              #line 53 "d:\project\remote\main.c"
  53  007E  0700     R  	mov a,___sendingStatus_2118[0]
  53  007F  0080     R  	mov _main_2[0],a
  53  0080  0700     R  	mov a,_main_2[0]
  53  0081  0A02        	sub a,2
  53  0082  390A        	snz z
  53  0083  2800     R  	jmp _L7
  54  0084              #line 54 "d:\project\remote\main.c"
  54  0084  2000     E  	call _stopSendCode
  55  0085              #line 55 "d:\project\remote\main.c"
  55  0085  1F00     R  	clr ___sendingStatus_2118[0]
  56  0086              #line 56 "d:\project\remote\main.c"
  56  0086  0FF4        	mov a,-12
  56  0087  0080     E  	mov _msDelay_2[0],a
  56  0088  0F01        	mov a,1
  56  0089  0080     E  	mov _msDelay_2[1],a
  56  008A  2000     E  	call _msDelay
  57  008B              #line 57 "d:\project\remote\main.c"
  57  008B  1F00     R  	clr ___sendingStatus_2118[0]
  58  008C              #line 58 "d:\project\remote\main.c"
  58  008C  0F00     R  	mov a,low offset _LC3
  58  008D  0080     E  	mov _ste2007_putText_2[4],a
"File: main.c        Assembler  Version HGASM0202      Page 6

  58  008E  0F00     R  	mov a,high offset _LC3
  58  008F  0080     E  	mov _ste2007_putText_2[5],a
  58  0090  0F04        	mov a,4
  58  0091  0080     E  	mov _ste2007_putText_2[2],a
  58  0092  1F00     E  	clr _ste2007_putText_2[3]
  58  0093  1F00     E  	clr _ste2007_putText_2[0]
  58  0094  1F00     E  	clr _ste2007_putText_2[1]
  58  0095  2000     E  	call _ste2007_putText
  59  0096              #line 59 "d:\project\remote\main.c"
  59  0096  0F00     R  	mov a,low offset _LC4
  59  0097  0080     E  	mov _ste2007_putText_2[4],a
  59  0098  0F00     R  	mov a,high offset _LC4
  59  0099  0080     E  	mov _ste2007_putText_2[5],a
  59  009A  0F05        	mov a,5
  59  009B  0080     E  	mov _ste2007_putText_2[2],a
  59  009C  1F00     E  	clr _ste2007_putText_2[3]
  59  009D  2800     R  	jmp _L16
  59  009E              _L7:
  61  009E              #line 61 "d:\project\remote\main.c"
  61  009E  1700     R  	sdza _main_2[0]
  61  009F  2800     R  	jmp _L4
  62  00A0              #line 62 "d:\project\remote\main.c"
  62  00A0  1F00     R  	clr ___sendingStatus_2118[0]
  63  00A1              #line 63 "d:\project\remote\main.c"
  63  00A1  0F00     R  	mov a,low offset _LC3
  63  00A2  0080     E  	mov _ste2007_putText_2[4],a
  63  00A3  0F00     R  	mov a,high offset _LC3
  63  00A4  0080     E  	mov _ste2007_putText_2[5],a
  63  00A5  0F04        	mov a,4
  63  00A6  0080     E  	mov _ste2007_putText_2[2],a
  63  00A7  1F00     E  	clr _ste2007_putText_2[3]
  63  00A8              _L16:
  63  00A8  1F00     E  	clr _ste2007_putText_2[0]
  63  00A9  1F00     E  	clr _ste2007_putText_2[1]
  63  00AA  2000     E  	call _ste2007_putText
  63  00AB              _L4:
  68  00AB              #line 68 "d:\project\remote\main.c"
  68  00AB              ;# 68 "d:\project\remote\main.c" 1
  68  00AB  0001        	clr wdt
  69  00AC              #line 69 "d:\project\remote\main.c"
  69  00AC  2800     R  	jmp _L8
  69  00AD  2800     R  	jmp $
  69  00AE              _main endp
  69  00AE              
  69  00AE              @dummy endp
  69  00AE              
  69  00AE              #line 69 "d:\project\remote\main.c"
  69  00AE              #pragma debug scope 1 1
  69  0000              @HCCINIT	.section 'data'
  10  0000              #line 10 "d:\project\remote\main.c"
  10  0000              @HCCINIT___sendingStatus_2118 .section 'data'
  10  0000              ___sendingStatus_2118 label byte
  10  0000              #pragma debug variable 8 2 ___sendingStatus_2118 "sendingStatus"
  10  0000              	db 0
  10  0000              @ROMDATA_BASE .section inpage 'code'
  10  0000              	db 0
  10  0001              @HCCINIT___sendingStatus_2118 .section 'data'
  10  0001              #pragma debug struct_end
  10  0001              #pragma debug struct_end
  10  0001              #pragma debug union_end
"File: main.c        Assembler  Version HGASM0202      Page 7

  10  0001              #pragma debug union_end
  10  0001              #pragma debug variable 43 1 ___pc "__pc" 1
   9  0001              #line 9 "d:\project\remote\main.c"
   9  0000              @code .section at 0 'code'
   9  0000  2800     R  	jmp _main_startup1
   9  0001              
   9  0001              extern _initSystem:near
   9  0001              extern _initGPIO:near
   9  0001              extern _ste2007_init:near
   9  0001              extern _initTimer:near
   9  0001              extern _ste2007_putText_2:byte
   9  0001              extern _ste2007_putText:near
   9  0001              extern _msDelay_2:byte
   9  0001              extern _msDelay:near
   9  0001              extern _startSendCode:near
   9  0001              extern _ste2007_putchar_2:byte
   9  0001              extern _ste2007_putchar:near
   9  0001              extern _stopSendCode:near
   9  0001              
   9  0001              ; 
   9  0001              ; Generated by holtek-gcc v3.19, Fri Mar 08 10:39:06 2024
   9  0001              ; Rebuild 718
   9  0001              ; end of file


        0 Errors, 0