"File: headerFile/PCF8814_font.h  Assembler  Version HGASM0202      Page 1


   1  0000              ; Generated by holtek-gcc v3.19, Fri Mar 08 10:39:07 2024
   2  0000              ; 
   3  0000              ; Configuration:
   4  0000              ;       with long instruction
   5  0000              ;       Single ROM, Multi-RAM
   6  0000              ;       bits_per_rom_unit:16
   7  0000              ;       with mp1
   8  0000              ;       with tbhp, address(0x9)
   9  0000              ;          Use tabrd-const
  10  0000              ;       
  11  0000              ; SFR address of long-instruction arch:
  12  0000              ;    mp0 = -1,1,0
  13  0000              ;    mp1 = 4,3,2
  14  0000              ;    mp2 = 14,13,12
  15  0000              ;    tbp = 9,7,8
  16  0000              ;    acc = 5
  17  0000              ;    pcl = 6
  18  0000              ;    status = 10
  19  0000              ;    bp = 11
  20  0000              ;    intc = 16
  21  0000              ;       
  22  0000              ;       
  23  0000              ; use 'tabrdc' instead of 'tabrd'
  24  0000              ;       
  25  0000              
  26  0000              #pragma translator "holtek-gcc 4.6.4" "3.19" "build 20130711"
  27  0000              ; Rebuild 718
  28  0000              
  29  0000              ir equ [2]
  30  0000              mp equ [3]
  31  0000              sbp equ [4]
  32  0000              acc equ [5]
  33  0000              bp equ [11]
  34  0000              tblp equ [7]
  35  0000              tbhp equ [9]
  36  0000              status equ [10]
  37  0000              c equ [10].0
  38  0000              ac equ [10].1
  39  0000              z equ [10].2
  40  0000              ov equ [10].3
  41  0000              cz equ [10].6
  42  0000              sc equ [10].7
  43  0000              intc equ [16]
  44  0000              
  45  0000              extern ra:byte
  46  0000              extern rb:byte
  47  0000              extern rc:byte
  48  0000              extern rd:byte
  49  0000              extern re:byte
  50  0000              extern rf:byte
  51  0000              extern rg:byte
  52  0000              extern rh:byte
  53  0000              extern _Crom2Prom:near
  54  0000              extern _Crom2PromNext:near
  55  0000              
  56  0000              RAMBANK 0 @BITDATASEC, @BITDATASEC1
  57  0000              @HCCINIT	.section 'data'
  58  0000              @HCCINIT0	.section 'data'
  59  0000              @BITDATASEC	 .section 'data'
"File: PCF8814.ASM   Assembler  Version HGASM0202      Page 2

  60  0000              @BITDATASEC1	 .section 'data'
  61  0000              
  62  0000              #pragma debug scope 1 1
  63  0000              	extern __DELAY3:near
  64  0000              	extern __DELAYX3:near
  65  0000              	extern __DELAYX6:near
  66  0000              	extern __DELAYY5:near
  67  0000              	extern __DELAYY3:near
  68  0000              	extern _builtin_holtek_delay_2:byte
  69  0000              ___pb equ [32]
  70  0000              public _STE2007_SPI_TRANSFER9
  71  0000              #pragma debug scope 2 1

  11  0000              #line 11 "d:\project\remote\srcFile\PCF8814.c"
  11  0000              _STE2007_SPI_TRANSFER9 .section 'code'
  11  0000              _STE2007_SPI_TRANSFER9 proc
  11  0000              public _STE2007_SPI_TRANSFER9_2
  11  0000  0002[           local _STE2007_SPI_TRANSFER9_2 db 2 dup(?)	; 2,0
            00
            ]
  11  0002              #pragma debug variable 12 2 _STE2007_SPI_TRANSFER9_2+0 "x"
  11  0000  1F00     E  	clr ra
  13  0001              #line 13 "d:\project\remote\srcFile\PCF8814.c"
  13  0001  1F00     E  	clr rb
  13  0002  0F01        	mov a,1
  13  0003  0080     E  	mov rc,a
  13  0004              _L5:
  16  0004              #line 16 "d:\project\remote\srcFile\PCF8814.c"
  16  0004  0700     E  	mov a,rb
  16  0005  0080     E  	mov rd,a
  16  0006  0700     E  	mov a,rc
  16  0007  0080     E  	mov re,a
  16  0008  0700     R  	mov a,_STE2007_SPI_TRANSFER9_2[0]  
  16  0009  0680     E  	andm a,rd  
  16  000A  0700     R  	mov a,_STE2007_SPI_TRANSFER9_2[1]  
  16  000B  0680     E  	andm a,re
  16  000C  0700     E  	mov a,rd
  16  000D  0500     E  	or a,re
  16  000E  3D0A        	sz z
  16  000F  2800     R  	jmp _L2
  17  0010              #line 17 "d:\project\remote\srcFile\PCF8814.c"
  17  0010  3120        	set [32].2
  17  0011  2800     R  	jmp _L3
  17  0012              _L2:
  21  0012              #line 21 "d:\project\remote\srcFile\PCF8814.c"
  21  0012  3520        	clr [32].2
  21  0013              _L3:
  24  0013              #line 24 "d:\project\remote\srcFile\PCF8814.c"
  24  0013  35A0        	clr [32].3
  25  0014              #line 25 "d:\project\remote\srcFile\PCF8814.c"
  25  0014  31A0        	set [32].3
  26  0015              #line 26 "d:\project\remote\srcFile\PCF8814.c"
  26  0015  340A        	clr c
  26  0016  1B80     E  	rrc rc
  26  0017  1B80     E  	rrc rb
  26  0018  1480     E  	inc ra
  14  0019              #line 14 "d:\project\remote\srcFile\PCF8814.c"
  14  0019  0700     E  	mov a,ra
  14  001A  0A09        	sub a,9
  14  001B  390A        	snz z
"File: PCF8814.c     Assembler  Version HGASM0202      Page 3

  14  001C  2800     R  	jmp _L5
  14  001D  0003        	ret
  14  001E              _STE2007_SPI_TRANSFER9 endp
  14  001E              #line 14 "d:\project\remote\srcFile\PCF8814.c"
  14  001E              #pragma debug scope 1 1
  14  001E              public _STE2007_CHIPSELECT
  14  001E              #pragma debug scope 3 1
  31  001E              #line 31 "d:\project\remote\srcFile\PCF8814.c"
  31  0000              _STE2007_CHIPSELECT .section 'code'
  31  0000              _STE2007_CHIPSELECT proc
  31  0000  00              local _STE2007_CHIPSELECT_2 db 1 dup(?)	; 0,1
  31  0000  0080     E  	mov ra,a
  31  0001  0080     R  	mov _STE2007_CHIPSELECT_2[0],a
  31  0002              #pragma debug variable 8 3 _STE2007_CHIPSELECT_2+0 "x"
  33  0002              #line 33 "d:\project\remote\srcFile\PCF8814.c"
  33  0002  1E00     E  	snz ra
  33  0003  2800     R  	jmp _L8
  34  0004              #line 34 "d:\project\remote\srcFile\PCF8814.c"
  34  0004  30A0        	set [32].1
  34  0005  2800     R  	jmp _L7
  34  0006              _L8:
  38  0006              #line 38 "d:\project\remote\srcFile\PCF8814.c"
  38  0006  34A0        	clr [32].1
  38  0007              _L7:
  38  0007  0003        	ret
  38  0008              _STE2007_CHIPSELECT endp
  38  0008              #line 38 "d:\project\remote\srcFile\PCF8814.c"
  38  0008              #pragma debug scope 1 1
  38  0008              public _ste2007_issuecmd
  38  0008              #pragma debug scope 4 1
  49  0008              #line 49 "d:\project\remote\srcFile\PCF8814.c"
  49  0000              _ste2007_issuecmd .section 'code'
  49  0000              _ste2007_issuecmd proc
  49  0000              public _ste2007_issuecmd_2
  49  0000  0003[           local _ste2007_issuecmd_2 db 3 dup(?)	; 2,1
            00
            ]
  49  0000  0080     R  	mov _ste2007_issuecmd_2[2],a
  49  0001              #pragma debug variable 8 4 _ste2007_issuecmd_2+2 "cmd"
  49  0001              #pragma debug variable 8 4 _ste2007_issuecmd_2+0 "arg"
  49  0001              #pragma debug variable 8 4 _ste2007_issuecmd_2+1 "argmask"
  50  0001              #line 50 "d:\project\remote\srcFile\PCF8814.c"
  50  0001  0F00        	mov a,0
  50  0002  2000     R  	call _STE2007_CHIPSELECT
  51  0003              #line 51 "d:\project\remote\srcFile\PCF8814.c"
  51  0003  0700     R  	mov a,_ste2007_issuecmd_2[0]
  51  0004  0600     R  	and a,_ste2007_issuecmd_2[1]
  51  0005  0080     E  	mov ra,a
  51  0006  0700     R  	mov a,_ste2007_issuecmd_2[2]
  51  0007  0580     E  	orm a,ra
  51  0008  0700     E  	mov a,ra
  51  0009  0080     R  	mov _STE2007_SPI_TRANSFER9_2[0],a
  51  000A  1F00     R  	clr _STE2007_SPI_TRANSFER9_2[1]
  51  000B  2000     R  	call _STE2007_SPI_TRANSFER9
  52  000C              #line 52 "d:\project\remote\srcFile\PCF8814.c"
  52  000C  0F01        	mov a,1
  52  000D  2000     R  	call _STE2007_CHIPSELECT
  52  000E  0003        	ret
  52  000F              _ste2007_issuecmd endp
  52  000F              #line 52 "d:\project\remote\srcFile\PCF8814.c"
"File: PCF8814.c     Assembler  Version HGASM0202      Page 4

  52  000F              #pragma debug scope 1 1
  52  000F              public _ste2007_issue_compoundcmd
  52  000F              #pragma debug scope 5 1
  56  000F              #line 56 "d:\project\remote\srcFile\PCF8814.c"
  56  0000              _ste2007_issue_compoundcmd .section 'code'
  56  0000              _ste2007_issue_compoundcmd proc
  56  0000              public _ste2007_issue_compoundcmd_2
  56  0000  0003[           local _ste2007_issue_compoundcmd_2 db 3 dup(?)	; 2,1
            00
            ]
  56  0000  0080     R  	mov _ste2007_issue_compoundcmd_2[2],a
  56  0001              #pragma debug variable 8 5 _ste2007_issue_compoundcmd_2+2 "cmd"
  56  0001              #pragma debug variable 8 5 _ste2007_issue_compoundcmd_2+0 "arg"
  56  0001              #pragma debug variable 8 5 _ste2007_issue_compoundcmd_2+1 "argmask"
  57  0001              #line 57 "d:\project\remote\srcFile\PCF8814.c"
  57  0001  0F00        	mov a,0
  57  0002  2000     R  	call _STE2007_CHIPSELECT
  58  0003              #line 58 "d:\project\remote\srcFile\PCF8814.c"
  58  0003  0700     R  	mov a,_ste2007_issue_compoundcmd_2[2]
  58  0004  0080     R  	mov _STE2007_SPI_TRANSFER9_2[0],a
  58  0005  1F00     R  	clr _STE2007_SPI_TRANSFER9_2[1]
  58  0006  2000     R  	call _STE2007_SPI_TRANSFER9
  59  0007              #line 59 "d:\project\remote\srcFile\PCF8814.c"
  59  0007  0700     R  	mov a,_ste2007_issue_compoundcmd_2[0]
  59  0008  0600     R  	and a,_ste2007_issue_compoundcmd_2[1]
  59  0009  0080     E  	mov ra,a
  59  000A  0700     E  	mov a,ra
  59  000B  0080     R  	mov _STE2007_SPI_TRANSFER9_2[0],a
  59  000C  1F00     R  	clr _STE2007_SPI_TRANSFER9_2[1]
  59  000D  2000     R  	call _STE2007_SPI_TRANSFER9
  60  000E              #line 60 "d:\project\remote\srcFile\PCF8814.c"
  60  000E  0F01        	mov a,1
  60  000F  2000     R  	call _STE2007_CHIPSELECT
  60  0010  0003        	ret
  60  0011              _ste2007_issue_compoundcmd endp
  60  0011              #line 60 "d:\project\remote\srcFile\PCF8814.c"
  60  0011              #pragma debug scope 1 1
  60  0011              public _ste2007_chipselect
  60  0011              #pragma debug scope 6 1
  67  0011              #line 67 "d:\project\remote\srcFile\PCF8814.c"
  67  0000              _ste2007_chipselect .section 'code'
  67  0000              _ste2007_chipselect proc
  67  0000  00              local _ste2007_chipselect_2 db 1 dup(?)	; 0,1
  67  0000  0080     E  	mov ra,a
  67  0001              #pragma debug variable 8 6 _ste2007_chipselect_2+0 "onoff"
  68  0001              #line 68 "d:\project\remote\srcFile\PCF8814.c"
  68  0001  0700     E  	mov a,ra
  68  0002  2000     R  	call _STE2007_CHIPSELECT
  68  0003  0003        	ret
  68  0004              _ste2007_chipselect endp
  68  0004              #line 68 "d:\project\remote\srcFile\PCF8814.c"
  68  0004              #pragma debug scope 1 1
  68  0004              public _ste2007_setxy
  68  0004              #pragma debug scope 7 1
 118  0004              #line 118 "d:\project\remote\srcFile\PCF8814.c"
 118  0000              _ste2007_setxy .section 'code'
 118  0000              _ste2007_setxy proc
 118  0000              public _ste2007_setxy_2
 118  0000  0002[           local _ste2007_setxy_2 db 2 dup(?)	; 1,1
            00
"File: PCF8814.c     Assembler  Version HGASM0202      Page 5

            ]
 118  0000  0080     R  	mov _ste2007_setxy_2[1],a
 118  0001              #pragma debug variable 8 7 _ste2007_setxy_2+1 "x"
 118  0001              #pragma debug variable 8 7 _ste2007_setxy_2+0 "y"
 119  0001              #line 119 "d:\project\remote\srcFile\PCF8814.c"
 119  0001  0F0F        	mov a,15
 119  0002  0080     R  	mov _ste2007_issuecmd_2[1],a
 119  0003  0700     R  	mov a,_ste2007_setxy_2[0]
 119  0004  0080     R  	mov _ste2007_issuecmd_2[0],a
 119  0005  0FB0        	mov a,176
 119  0006  2000     R  	call _ste2007_issuecmd
 120  0007              #line 120 "d:\project\remote\srcFile\PCF8814.c"
 120  0007  0F07        	mov a,7
 120  0008  0080     R  	mov _ste2007_issuecmd_2[1],a
 120  0009  1100     R  	swapa _ste2007_setxy_2[1]
 120  000A  0E0F        	and a,0fh
 120  000B  0080     R  	mov _ste2007_issuecmd_2[0],a
 120  000C  0F10        	mov a,16
 120  000D  2000     R  	call _ste2007_issuecmd
 121  000E              #line 121 "d:\project\remote\srcFile\PCF8814.c"
 121  000E  0F0F        	mov a,15
 121  000F  0080     R  	mov _ste2007_issuecmd_2[1],a
 121  0010  0700     R  	mov a,_ste2007_setxy_2[1]
 121  0011  0080     R  	mov _ste2007_issuecmd_2[0],a
 121  0012  0F00        	mov a,0
 121  0013  2000     R  	call _ste2007_issuecmd
 121  0014  0003        	ret
 121  0015              _ste2007_setxy endp
 121  0015              #line 121 "d:\project\remote\srcFile\PCF8814.c"
 121  0015              #pragma debug scope 1 1
 121  0015              public _ste2007_clear
 121  0015              #pragma debug scope 8 1
 105  0015              #line 105 "d:\project\remote\srcFile\PCF8814.c"
 105  0000              _ste2007_clear .section 'code'
 105  0000              _ste2007_clear proc
 105  0000  0002[           local _ste2007_clear_2 db 2 dup(?)	; 0,2
            00
            ]
 108  0002              #line 108 "d:\project\remote\srcFile\PCF8814.c"
 108  0000  1F00     R  	clr _ste2007_setxy_2[0]
 108  0001  0F00        	mov a,0
 108  0002  2000     R  	call _ste2007_setxy
 109  0003              #line 109 "d:\project\remote\srcFile\PCF8814.c"
 109  0003  0F00        	mov a,0
 109  0004  2000     R  	call _STE2007_CHIPSELECT
 109  0005  0F60        	mov a,96
 109  0006  0080     R  	mov _ste2007_clear_2[0],a
 109  0007  0F03        	mov a,3
 109  0008  0080     R  	mov _ste2007_clear_2[1],a
 109  0009              _L16:
 111  0009              #line 111 "d:\project\remote\srcFile\PCF8814.c"
 111  0009  1F00     R  	clr _STE2007_SPI_TRANSFER9_2[0]
 111  000A  0F01        	mov a,1
 111  000B  0080     R  	mov _STE2007_SPI_TRANSFER9_2[1],a
 111  000C  2000     R  	call _STE2007_SPI_TRANSFER9
 111  000D  0FFF        	mov a,255
 111  000E  0380     R  	addm a,_ste2007_clear_2[0]
 111  000F  0FFF        	mov a,255
 111  0010  1380     R  	adcm a,_ste2007_clear_2[1]
 110  0011              #line 110 "d:\project\remote\srcFile\PCF8814.c"
"File: PCF8814.c     Assembler  Version HGASM0202      Page 6

 110  0011  0700     R  	mov a,_ste2007_clear_2[0]
 110  0012  0500     R  	or a,_ste2007_clear_2[1]
 110  0013  390A        	snz z
 110  0014  2800     R  	jmp _L16
 113  0015              #line 113 "d:\project\remote\srcFile\PCF8814.c"
 113  0015  0F01        	mov a,1
 113  0016  2000     R  	call _STE2007_CHIPSELECT
 113  0017  0003        	ret
 113  0018              _ste2007_clear endp
 113  0018              #line 113 "d:\project\remote\srcFile\PCF8814.c"
 113  0018              #pragma debug scope 1 1
 113  0018              ___pbc equ [33]
 113  0018              public _ste2007_init
 113  0018              #pragma debug scope 9 1
  73  0018              #line 73 "d:\project\remote\srcFile\PCF8814.c"
  73  0000              _ste2007_init .section 'code'
  73  0000              _ste2007_init proc
  75  0000              #line 75 "d:\project\remote\srcFile\PCF8814.c"
  75  0000  3421        	clr [33].0
  76  0001              #line 76 "d:\project\remote\srcFile\PCF8814.c"
  76  0001  34A1        	clr [33].1
  77  0002              #line 77 "d:\project\remote\srcFile\PCF8814.c"
  77  0002  3521        	clr [33].2
  78  0003              #line 78 "d:\project\remote\srcFile\PCF8814.c"
  78  0003  35A1        	clr [33].3
  79  0004              #line 79 "d:\project\remote\srcFile\PCF8814.c"
  79  0004  3721        	clr [33].6
  81  0005              #line 81 "d:\project\remote\srcFile\PCF8814.c"
  81  0005  3420        	clr [32].0
  82  0006              #line 82 "d:\project\remote\srcFile\PCF8814.c"
  82  0006  0F64        	mov a,100
  82  0007  0080     E  	mov _msDelay_2[0],a
  82  0008  1F00     E  	clr _msDelay_2[1]
  82  0009  2000     E  	call _msDelay
  83  000A              #line 83 "d:\project\remote\srcFile\PCF8814.c"
  83  000A  3020        	set [32].0
  84  000B              #line 84 "d:\project\remote\srcFile\PCF8814.c"
  84  000B  0F64        	mov a,100
  84  000C  0080     E  	mov _msDelay_2[0],a
  84  000D  1F00     E  	clr _msDelay_2[1]
  84  000E  2000     E  	call _msDelay
  85  000F              #line 85 "d:\project\remote\srcFile\PCF8814.c"
  85  000F  3320        	set [32].6
  86  0010              #line 86 "d:\project\remote\srcFile\PCF8814.c"
  86  0010  1F00     R  	clr _ste2007_issuecmd_2[1]
  86  0011  1F00     R  	clr _ste2007_issuecmd_2[0]
  86  0012  0FE2        	mov a,226
  86  0013  2000     R  	call _ste2007_issuecmd
  87  0014              #line 87 "d:\project\remote\srcFile\PCF8814.c"
  87  0014  0F01        	mov a,1
  87  0015  0080     R  	mov _ste2007_issuecmd_2[1],a
  87  0016  1F00     R  	clr _ste2007_issuecmd_2[0]
  87  0017  0FA4        	mov a,164
  87  0018  2000     R  	call _ste2007_issuecmd
  88  0019              #line 88 "d:\project\remote\srcFile\PCF8814.c"
  88  0019  0F07        	mov a,7
  88  001A  0080     R  	mov _ste2007_issuecmd_2[1],a
  88  001B  0F07        	mov a,7
  88  001C  0080     R  	mov _ste2007_issuecmd_2[0],a
  88  001D  0F28        	mov a,40
"File: PCF8814.c     Assembler  Version HGASM0202      Page 7

  88  001E  2000     R  	call _ste2007_issuecmd
  89  001F              #line 89 "d:\project\remote\srcFile\PCF8814.c"
  89  001F  0F01        	mov a,1
  89  0020  0080     R  	mov _ste2007_issuecmd_2[1],a
  89  0021  0F01        	mov a,1
  89  0022  0080     R  	mov _ste2007_issuecmd_2[0],a
  89  0023  0FAE        	mov a,174
  89  0024  2000     R  	call _ste2007_issuecmd
  90  0025              #line 90 "d:\project\remote\srcFile\PCF8814.c"
  90  0025  0F08        	mov a,8
  90  0026  0080     R  	mov _ste2007_issuecmd_2[1],a
  90  0027  1F00     R  	clr _ste2007_issuecmd_2[0]
  90  0028  0FC0        	mov a,192
  90  0029  2000     R  	call _ste2007_issuecmd
  91  002A              #line 91 "d:\project\remote\srcFile\PCF8814.c"
  91  002A  0F01        	mov a,1
  91  002B  0080     R  	mov _ste2007_issuecmd_2[1],a
  91  002C  1F00     R  	clr _ste2007_issuecmd_2[0]
  91  002D  0FA0        	mov a,160
  91  002E  2000     R  	call _ste2007_issuecmd
  92  002F              #line 92 "d:\project\remote\srcFile\PCF8814.c"
  92  002F  0F1F        	mov a,31
  92  0030  0080     R  	mov _ste2007_issuecmd_2[1],a
  92  0031  0F10        	mov a,16
  92  0032  0080     R  	mov _ste2007_issuecmd_2[0],a
  92  0033  0F80        	mov a,128
  92  0034  2000     R  	call _ste2007_issuecmd
  94  0035              #line 94 "d:\project\remote\srcFile\PCF8814.c"
  94  0035  2000     R  	call _ste2007_clear
  96  0036              #line 96 "d:\project\remote\srcFile\PCF8814.c"
  96  0036  0F03        	mov a,3
  96  0037  0080     R  	mov _ste2007_issue_compoundcmd_2[1],a
  96  0038  0F03        	mov a,3
  96  0039  0080     R  	mov _ste2007_issue_compoundcmd_2[0],a
  96  003A  0FEF        	mov a,239
  96  003B  2000     R  	call _ste2007_issue_compoundcmd
  97  003C              #line 97 "d:\project\remote\srcFile\PCF8814.c"
  97  003C  0F03        	mov a,3
  97  003D  0080     R  	mov _ste2007_issue_compoundcmd_2[1],a
  97  003E  1F00     R  	clr _ste2007_issue_compoundcmd_2[0]
  97  003F  0F3D        	mov a,61
  97  0040  2000     R  	call _ste2007_issue_compoundcmd
  98  0041              #line 98 "d:\project\remote\srcFile\PCF8814.c"
  98  0041  0F07        	mov a,7
  98  0042  0080     R  	mov _ste2007_issuecmd_2[1],a
  98  0043  0F06        	mov a,6
  98  0044  0080     R  	mov _ste2007_issuecmd_2[0],a
  98  0045  0F30        	mov a,48
  98  0046  2000     R  	call _ste2007_issuecmd
  99  0047              #line 99 "d:\project\remote\srcFile\PCF8814.c"
  99  0047  1F80     R  	set _ste2007_issue_compoundcmd_2[1]
  99  0048  1F00     R  	clr _ste2007_issue_compoundcmd_2[0]
  99  0049  0FE1        	mov a,225
  99  004A  2000     R  	call _ste2007_issue_compoundcmd
 100  004B              #line 100 "d:\project\remote\srcFile\PCF8814.c"
 100  004B  0F01        	mov a,1
 100  004C  0080     R  	mov _ste2007_issuecmd_2[1],a
 100  004D  1F00     R  	clr _ste2007_issuecmd_2[0]
 100  004E  0FA6        	mov a,166
 100  004F  2000     R  	call _ste2007_issuecmd
"File: PCF8814.c     Assembler  Version HGASM0202      Page 8

 100  0050  0003        	ret
 100  0051              _ste2007_init endp
 100  0051              #line 100 "d:\project\remote\srcFile\PCF8814.c"
 100  0051              #pragma debug scope 1 1
 100  0051              public _ste2007_write
 100  0051              #pragma debug scope 10 1
 128  0051              #line 128 "d:\project\remote\srcFile\PCF8814.c"
 128  0000              _ste2007_write .section 'code'
 128  0000              _ste2007_write proc
 128  0000              public _ste2007_write_2
 128  0000  0005[           local _ste2007_write_2 db 5 dup(?)	; 2,3
            00
            ]
 128  0000  0080     E  	mov ra,a
 128  0001  0080     R  	mov _ste2007_write_2[2],a
 128  0002              #pragma debug variable 8 10 _ste2007_write_2+2 "buf"
 128  0002              #pragma debug variable 12 10 _ste2007_write_2+0 "len"
 128  0002              #pragma debug variable 8 10 _ste2007_write_2+3 "i"
 128  0002              #pragma debug variable 8 10 _ste2007_write_2+4 "start"
 130  0002              #line 130 "d:\project\remote\srcFile\PCF8814.c"
 130  0002  0700     E  	mov a,ra
 130  0003  0BE0        	add a,224
 130  0004  0080     R  	mov _ste2007_write_2[4],a
 132  0005              #line 132 "d:\project\remote\srcFile\PCF8814.c"
 132  0005  1F00     R  	clr _ste2007_write_2[3]
 132  0006  2800     R  	jmp _L19
 132  0007              _L20:
 133  0007              #line 133 "d:\project\remote\srcFile\PCF8814.c"
 133  0007  0700     R  	mov a,_ste2007_write_2[4]
 133  0008  0080     E  	mov rb,a
 133  0009  1F00     E  	clr rc
 133  000A  340A        	clr c
 133  000B  1A00     E  	rlca rb
 133  000C  0080     E  	mov rf,a
 133  000D  1A00     E  	rlca rc
 133  000E  0080     E  	mov rg,a
 133  000F  0700     E  	mov a,rf
 133  0010  0380     E  	addm a,rb
 133  0011  0700     E  	mov a,rg
 133  0012  1380     E  	adcm a,rc
 133  0013  340A        	clr c
 133  0014  1A80     E  	rlc rb
 133  0015  1A80     E  	rlc rc
 133  0016  0700     E  	mov a,rb
 133  0017  0380     E  	addm a,rd
 133  0018  0700     E  	mov a,rc
 133  0019  1380     E  	adcm a,re
 133  001A  0F00     R  	mov a,low offset _lcd_Font
 133  001B  0300     E  	add a,rd
 133  001C  0083        	mov mp,a
 133  001D  0F00     R  	mov a,high offset _lcd_Font
 133  001E  1300     E  	adc a,re
 133  001F  0084        	mov sbp,a
 133  0020  2000     E  	call _Crom2Prom
 133  0021  0080     E  	mov rb,a
 133  0022  1F00     E  	clr rc
 133  0023  0700     E  	mov a,rc
 133  0024  0D01        	or a,1
 133  0025  0080     R  	mov _STE2007_SPI_TRANSFER9_2[1],a
 133  0026  0700     E  	mov a,rb
"File: PCF8814.c     Assembler  Version HGASM0202      Page 9

 133  0027  0D00        	or a,0
 133  0028  0080     R  	mov _STE2007_SPI_TRANSFER9_2[0],a
 133  0029  2000     R  	call _STE2007_SPI_TRANSFER9
 132  002A              #line 132 "d:\project\remote\srcFile\PCF8814.c"
 132  002A  1480     R  	inc _ste2007_write_2[3]
 132  002B              _L19:
 132  002B  0700     R  	mov a,_ste2007_write_2[3]
 132  002C  0080     E  	mov rd,a
 132  002D  1F00     E  	clr re
 132  002E  0700     E  	mov a,rd
 132  002F  0200     R  	sub a,_ste2007_write_2[0]
 132  0030  0700     E  	mov a,re
 132  0031  1200     R  	sbc a,_ste2007_write_2[1]
 132  0032  380A        	snz c
 132  0033  2800     R  	jmp _L20
 132  0034  0003        	ret
 132  0035              _ste2007_write endp
 132  0035              #line 132 "d:\project\remote\srcFile\PCF8814.c"
 132  0035              #pragma debug scope 1 1
 132  0035              public _ste2007_invert
 132  0035              #pragma debug scope 11 1
 141  0035              #line 141 "d:\project\remote\srcFile\PCF8814.c"
 141  0000              _ste2007_invert .section 'code'
 141  0000              _ste2007_invert proc
 141  0000  00              local _ste2007_invert_2 db 1 dup(?)	; 0,1
 141  0000  0080     E  	mov ra,a
 141  0001              #pragma debug variable 8 11 _ste2007_invert_2+0 "onoff"
 142  0001              #line 142 "d:\project\remote\srcFile\PCF8814.c"
 142  0001  0F01        	mov a,1
 142  0002  0080     R  	mov _ste2007_issuecmd_2[1],a
 142  0003  0700     E  	mov a,ra
 142  0004  0080     R  	mov _ste2007_issuecmd_2[0],a
 142  0005  0FA6        	mov a,166
 142  0006  2000     R  	call _ste2007_issuecmd
 142  0007  0003        	ret
 142  0008              _ste2007_invert endp
 142  0008              #line 142 "d:\project\remote\srcFile\PCF8814.c"
 142  0008              #pragma debug scope 1 1
 142  0008              public _ste2007_powersave
 142  0008              #pragma debug scope 12 1
 147  0008              #line 147 "d:\project\remote\srcFile\PCF8814.c"
 147  0000              _ste2007_powersave .section 'code'
 147  0000              _ste2007_powersave proc
 147  0000  00              local _ste2007_powersave_2 db 1 dup(?)	; 0,1
 147  0000  0080     E  	mov ra,a
 147  0001  0080     R  	mov _ste2007_powersave_2[0],a
 147  0002              #pragma debug variable 8 12 _ste2007_powersave_2+0 "onoff"
 148  0002              #line 148 "d:\project\remote\srcFile\PCF8814.c"
 148  0002  0F01        	mov a,1
 148  0003  0080     R  	mov _ste2007_issuecmd_2[1],a
 148  0004  0700     E  	mov a,ra
 148  0005  0080     R  	mov _ste2007_issuecmd_2[0],a
 148  0006  0FA4        	mov a,164
 148  0007  2000     R  	call _ste2007_issuecmd
 149  0008              #line 149 "d:\project\remote\srcFile\PCF8814.c"
 149  0008  0F01        	mov a,1
 149  0009  0080     R  	mov _ste2007_issuecmd_2[1],a
 149  000A  0F01        	mov a,1
 149  000B  0080     E  	mov ra,a
 149  000C  1E00     R  	snz _ste2007_powersave_2[0]
"File: PCF8814.c     Assembler  Version HGASM0202      Page 10

 149  000D  2800     R  	jmp _L23
 149  000E              #line 149 "d:\project\remote\srcFile\PCF8814.c"
 149  000E  1F00     E  	clr ra
 149  000F              _L23:
 149  000F  0700     E  	mov a,ra
 149  0010  0080     R  	mov _ste2007_issuecmd_2[0],a
 149  0011  0FAE        	mov a,174
 149  0012  2000     R  	call _ste2007_issuecmd
 149  0013  0003        	ret
 149  0014              _ste2007_powersave endp
 149  0014              #line 149 "d:\project\remote\srcFile\PCF8814.c"
 149  0014              #pragma debug scope 1 1
 149  0014              public _ste2007_contrast
 149  0014              #pragma debug scope 13 1
 156  0014              #line 156 "d:\project\remote\srcFile\PCF8814.c"
 156  0000              _ste2007_contrast .section 'code'
 156  0000              _ste2007_contrast proc
 156  0000  00              local _ste2007_contrast_2 db 1 dup(?)	; 0,1
 156  0000  0080     E  	mov ra,a
 156  0001              #pragma debug variable 8 13 _ste2007_contrast_2+0 "val"
 157  0001              #line 157 "d:\project\remote\srcFile\PCF8814.c"
 157  0001  0F1F        	mov a,31
 157  0002  0080     R  	mov _ste2007_issuecmd_2[1],a
 157  0003  0700     E  	mov a,ra
 157  0004  0080     R  	mov _ste2007_issuecmd_2[0],a
 157  0005  0F80        	mov a,128
 157  0006  2000     R  	call _ste2007_issuecmd
 157  0007  0003        	ret
 157  0008              _ste2007_contrast endp
 157  0008              #line 157 "d:\project\remote\srcFile\PCF8814.c"
 157  0008              #pragma debug scope 1 1
 157  0008              public _ste2007_refreshrate
 157  0008              #pragma debug scope 14 1
 164  0008              #line 164 "d:\project\remote\srcFile\PCF8814.c"
 164  0000              _ste2007_refreshrate .section 'code'
 164  0000              _ste2007_refreshrate proc
 164  0000  00              local _ste2007_refreshrate_2 db 1 dup(?)	; 0,1
 164  0000  0080     E  	mov ra,a
 164  0001              #pragma debug variable 8 14 _ste2007_refreshrate_2+0 "val"
 175  0001              #line 175 "d:\project\remote\srcFile\PCF8814.c"
 175  0001  0F03        	mov a,3
 175  0002  0080     R  	mov _ste2007_issue_compoundcmd_2[1],a
 165  0003              #line 165 "d:\project\remote\srcFile\PCF8814.c"
 165  0003  0700     E  	mov a,ra
 165  0004  0A46        	sub a,70
 165  0005  3D0A        	sz z
 165  0006  2800     R  	jmp _L27
 165  0007  0A05        	sub a,(75)-(70)
 165  0008  3D0A        	sz z
 165  0009  2800     R  	jmp _L28
 165  000A              #line 165 "d:\project\remote\srcFile\PCF8814.c"
 165  000A  0700     E  	mov a,ra
 165  000B  0A50        	sub a,80
 165  000C  390A        	snz z
 165  000D  2800     R  	jmp _L31
 167  000E              #line 167 "d:\project\remote\srcFile\PCF8814.c"
 167  000E  1F00     R  	clr _ste2007_issue_compoundcmd_2[0]
 167  000F  2800     R  	jmp _L32
 167  0010              _L28:
 171  0010              #line 171 "d:\project\remote\srcFile\PCF8814.c"
"File: PCF8814.c     Assembler  Version HGASM0202      Page 11

 171  0010  0F01        	mov a,1
 171  0011  0080     R  	mov _ste2007_issue_compoundcmd_2[0],a
 171  0012  2800     R  	jmp _L32
 171  0013              _L27:
 175  0013              #line 175 "d:\project\remote\srcFile\PCF8814.c"
 175  0013  0F02        	mov a,2
 175  0014  0080     R  	mov _ste2007_issue_compoundcmd_2[0],a
 175  0015  2800     R  	jmp _L32
 175  0016              _L31:
 179  0016              #line 179 "d:\project\remote\srcFile\PCF8814.c"
 179  0016  0F03        	mov a,3
 179  0017  0080     R  	mov _ste2007_issue_compoundcmd_2[0],a
 179  0018              _L32:
 179  0018  0FEF        	mov a,239
 179  0019  2000     R  	call _ste2007_issue_compoundcmd
 179  001A  0003        	ret
 179  001B              _ste2007_refreshrate endp
 179  001B              #line 179 "d:\project\remote\srcFile\PCF8814.c"
 179  001B              #pragma debug scope 1 1
 179  001B              public _ste2007_putchar
 179  001B              #pragma debug scope 15 1
 195  001B              #line 195 "d:\project\remote\srcFile\PCF8814.c"
 195  0000              _ste2007_putchar .section 'code'
 195  0000              _ste2007_putchar proc
 195  0000              public _ste2007_putchar_2
 195  0000  0005[           local _ste2007_putchar_2 db 5 dup(?)	; 5,0
            00
            ]
 195  0005              #pragma debug variable 11 15 _ste2007_putchar_2+0 "x"
 195  0005              #pragma debug variable 11 15 _ste2007_putchar_2+2 "y"
 195  0005              #pragma debug variable 8 15 _ste2007_putchar_2+4 "text"
 196  0005              #line 196 "d:\project\remote\srcFile\PCF8814.c"
 196  0000  3C00     R  	sz _ste2007_putchar_2[1].7
 196  0001  2800     R  	jmp _L34
 196  0002              #line 196 "d:\project\remote\srcFile\PCF8814.c"
 196  0002  3C00     R  	sz _ste2007_putchar_2[3].7
 196  0003  2800     R  	jmp _L34
 197  0004              #line 197 "d:\project\remote\srcFile\PCF8814.c"
 197  0004  0700     R  	mov a,_ste2007_putchar_2[0]
 197  0005  0300     R  	add a,_ste2007_putchar_2[0]
 197  0006  0080     E  	mov ra,a
 197  0007  0700     R  	mov a,_ste2007_putchar_2[0]
 197  0008  0380     E  	addm a,ra
 197  0009  0700     E  	mov a,ra
 197  000A  0380     E  	addm a,ra
 197  000B  0700     R  	mov a,_ste2007_putchar_2[2]
 197  000C  0080     R  	mov _ste2007_setxy_2[0],a
 197  000D  0700     E  	mov a,ra
 197  000E  2000     R  	call _ste2007_setxy
 197  000F              _L34:
 200  000F              #line 200 "d:\project\remote\srcFile\PCF8814.c"
 200  000F  0F00        	mov a,0
 200  0010  2000     R  	call _STE2007_CHIPSELECT
 201  0011              #line 201 "d:\project\remote\srcFile\PCF8814.c"
 201  0011  0700     R  	mov a,_ste2007_putchar_2[4]
 201  0012  0080     E  	mov ra,a
 201  0013  0F06        	mov a,6
 201  0014  0080     R  	mov _ste2007_write_2[0],a
 201  0015  1F00     R  	clr _ste2007_write_2[1]
 201  0016  0700     E  	mov a,ra
"File: PCF8814.c     Assembler  Version HGASM0202      Page 12

 201  0017  2000     R  	call _ste2007_write
 202  0018              #line 202 "d:\project\remote\srcFile\PCF8814.c"
 202  0018  0F01        	mov a,1
 202  0019  2000     R  	call _STE2007_CHIPSELECT
 202  001A  0003        	ret
 202  001B              _ste2007_putchar endp
 202  001B              #line 202 "d:\project\remote\srcFile\PCF8814.c"
 202  001B              #pragma debug scope 1 1
 202  001B              public _ste2007_putText
 202  001B              #pragma debug scope 16 1
 208  001B              #line 208 "d:\project\remote\srcFile\PCF8814.c"
 208  0000              _ste2007_putText .section 'code'
 208  0000              _ste2007_putText proc
 208  0000              public _ste2007_putText_2
 208  0000  0007[           local _ste2007_putText_2 db 7 dup(?)	; 6,1
            00
            ]
 208  0007              #pragma debug variable 11 16 _ste2007_putText_2+0 "x"
 208  0007              #pragma debug variable 11 16 _ste2007_putText_2+2 "y"
 208  0007              #pragma debug pointer 42 7 16
 208  0007              #pragma debug pointer 42 7 16
 208  0007              #pragma debug variable 42 16 _ste2007_putText_2+4 "text"
 208  0007              #pragma debug variable 8 16 _ste2007_putText_2+6 "i"
 210  0007              #line 210 "d:\project\remote\srcFile\PCF8814.c"
 210  0000  3C00     R  	sz _ste2007_putText_2[1].7
 210  0001  2800     R  	jmp _L36
 210  0002              #line 210 "d:\project\remote\srcFile\PCF8814.c"
 210  0002  3C00     R  	sz _ste2007_putText_2[3].7
 210  0003  2800     R  	jmp _L36
 211  0004              #line 211 "d:\project\remote\srcFile\PCF8814.c"
 211  0004  0700     R  	mov a,_ste2007_putText_2[0]
 211  0005  0300     R  	add a,_ste2007_putText_2[0]
 211  0006  0080     E  	mov ra,a
 211  0007  0700     R  	mov a,_ste2007_putText_2[0]
 211  0008  0380     E  	addm a,ra
 211  0009  0700     E  	mov a,ra
 211  000A  0380     E  	addm a,ra
 211  000B  0700     R  	mov a,_ste2007_putText_2[2]
 211  000C  0080     R  	mov _ste2007_setxy_2[0],a
 211  000D  0700     E  	mov a,ra
 211  000E  2000     R  	call _ste2007_setxy
 211  000F              _L36:
 213  000F              #line 213 "d:\project\remote\srcFile\PCF8814.c"
 213  000F  0F00        	mov a,0
 213  0010  2000     R  	call _STE2007_CHIPSELECT
 215  0011              #line 215 "d:\project\remote\srcFile\PCF8814.c"
 215  0011  1F00     R  	clr _ste2007_putText_2[6]
 215  0012              _L37:
 215  0012  0700     R  	mov a,_ste2007_putText_2[6]
 215  0013  0300     R  	add a,_ste2007_putText_2[4]
 215  0014  0083        	mov mp,a
 215  0015  1F05        	clr acc
 215  0016  1300     R  	adc a,_ste2007_putText_2[5]
 215  0017  0084        	mov sbp,a
 215  0018  2000     E  	call _Crom2Prom
 215  0019  0080     E  	mov ra,a
 215  001A  1E00     E  	snz ra
 215  001B  2800     R  	jmp _L39
 216  001C              #line 216 "d:\project\remote\srcFile\PCF8814.c"
 216  001C  0F06        	mov a,6
"File: PCF8814.c     Assembler  Version HGASM0202      Page 13

 216  001D  0080     R  	mov _ste2007_write_2[0],a
 216  001E  1F00     R  	clr _ste2007_write_2[1]
 216  001F  0700     E  	mov a,ra
 216  0020  2000     R  	call _ste2007_write
 215  0021              #line 215 "d:\project\remote\srcFile\PCF8814.c"
 215  0021  1480     R  	inc _ste2007_putText_2[6]
 215  0022  2800     R  	jmp _L37
 215  0023              _L39:
 218  0023              #line 218 "d:\project\remote\srcFile\PCF8814.c"
 218  0023  0F01        	mov a,1
 218  0024  2000     R  	call _STE2007_CHIPSELECT
 218  0025  0003        	ret
 218  0026              _ste2007_putText endp
 218  0026              #line 218 "d:\project\remote\srcFile\PCF8814.c"
 218  0026              #pragma debug scope 1 1
 218  0026              public _lcd_Font
 218  0000              @crom	.section 'crom'

   6  0000              #line 6 "d:\project\remote\headerFile/PCF8814_font.h"
   6  0000              @crom	.section	'crom'
   6  0000              _lcd_Font:
   6  0000              #pragma debug array 43 8 6 1
   6  0000              #pragma debug array 43 8 6 1
   6  0000              #pragma debug array 44 43 99 1
   6  0000              #pragma debug array 44 43 99 1
   6  0000              #pragma debug variable 44 1 _lcd_Font "lcd_Font"
   6  0000              	db 0
   6  0001              	db 0
   6  0001              	db 0
   6  0002              	db 0
   6  0002              	db 0
   6  0003              	db 0
   6  0003              	db 0
   6  0004              	db 0
   6  0004              	db 95
   6  0005              	db 0
   6  0005              	db 0
   6  0006              	db 0
   6  0006              	db 0
   6  0007              	db 7
   6  0007              	db 0
   6  0008              	db 7
   6  0008              	db 0
   6  0009              	db 0
   6  0009              	db 20
   6  000A              	db 127
   6  000A              	db 20
   6  000B              	db 127
   6  000B              	db 20
   6  000C              	db 0
   6  000C              	db 36
   6  000D              	db 42
   6  000D              	db 127
   6  000E              	db 42
   6  000E              	db 18
   6  000F              	db 0
   6  000F              	db 35
   6  0010              	db 19
   6  0010              	db 8
   6  0011              	db 100
"File: headerFile/PCF8814_font.h  Assembler  Version HGASM0202      Page 14

   6  0011              	db 98
   6  0012              	db 0
   6  0012              	db 54
   6  0013              	db 73
   6  0013              	db 85
   6  0014              	db 34
   6  0014              	db 80
   6  0015              	db 0
   6  0015              	db 0
   6  0016              	db 5
   6  0016              	db 3
   6  0017              	db 0
   6  0017              	db 0
   6  0018              	db 0
   6  0018              	db 0
   6  0019              	db 28
   6  0019              	db 34
   6  001A              	db 65
   6  001A              	db 0
   6  001B              	db 0
   6  001B              	db 0
   6  001C              	db 65
   6  001C              	db 34
   6  001D              	db 28
   6  001D              	db 0
   6  001E              	db 0
   6  001E              	db 20
   6  001F              	db 8
   6  001F              	db 62
   6  0020              	db 8
   6  0020              	db 20
   6  0021              	db 0
   6  0021              	db 8
   6  0022              	db 8
   6  0022              	db 62
   6  0023              	db 8
   6  0023              	db 8
   6  0024              	db 0
   6  0024              	db 0
   6  0025              	db 80
   6  0025              	db 48
   6  0026              	db 0
   6  0026              	db 0
   6  0027              	db 0
   6  0027              	db 8
   6  0028              	db 8
   6  0028              	db 8
   6  0029              	db 8
   6  0029              	db 8
   6  002A              	db 0
   6  002A              	db 0
   6  002B              	db 96
   6  002B              	db 96
   6  002C              	db 0
   6  002C              	db 0
   6  002D              	db 0
   6  002D              	db 32
   6  002E              	db 16
   6  002E              	db 8
   6  002F              	db 4
"File: headerFile/PCF8814_font.h  Assembler  Version HGASM0202      Page 15

   6  002F              	db 2
   6  0030              	db 0
   6  0030              	db 62
   6  0031              	db 81
   6  0031              	db 73
   6  0032              	db 69
   6  0032              	db 62
   6  0033              	db 0
   6  0033              	db 0
   6  0034              	db 66
   6  0034              	db 127
   6  0035              	db 64
   6  0035              	db 0
   6  0036              	db 0
   6  0036              	db 66
   6  0037              	db 97
   6  0037              	db 81
   6  0038              	db 73
   6  0038              	db 70
   6  0039              	db 0
   6  0039              	db 33
   6  003A              	db 65
   6  003A              	db 69
   6  003B              	db 75
   6  003B              	db 49
   6  003C              	db 0
   6  003C              	db 24
   6  003D              	db 20
   6  003D              	db 18
   6  003E              	db 127
   6  003E              	db 16
   6  003F              	db 0
   6  003F              	db 39
   6  0040              	db 69
   6  0040              	db 69
   6  0041              	db 69
   6  0041              	db 57
   6  0042              	db 0
   6  0042              	db 60
   6  0043              	db 74
   6  0043              	db 73
   6  0044              	db 73
   6  0044              	db 48
   6  0045              	db 0
   6  0045              	db 1
   6  0046              	db 113
   6  0046              	db 9
   6  0047              	db 5
   6  0047              	db 3
   6  0048              	db 0
   6  0048              	db 54
   6  0049              	db 73
   6  0049              	db 73
   6  004A              	db 73
   6  004A              	db 54
   6  004B              	db 0
   6  004B              	db 6
   6  004C              	db 73
   6  004C              	db 73
   6  004D              	db 41
"File: headerFile/PCF8814_font.h  Assembler  Version HGASM0202      Page 16

   6  004D              	db 30
   6  004E              	db 0
   6  004E              	db 0
   6  004F              	db 54
   6  004F              	db 54
   6  0050              	db 0
   6  0050              	db 0
   6  0051              	db 0
   6  0051              	db 0
   6  0052              	db 86
   6  0052              	db 54
   6  0053              	db 0
   6  0053              	db 0
   6  0054              	db 0
   6  0054              	db 8
   6  0055              	db 20
   6  0055              	db 34
   6  0056              	db 65
   6  0056              	db 0
   6  0057              	db 0
   6  0057              	db 20
   6  0058              	db 20
   6  0058              	db 20
   6  0059              	db 20
   6  0059              	db 20
   6  005A              	db 0
   6  005A              	db 0
   6  005B              	db 65
   6  005B              	db 34
   6  005C              	db 20
   6  005C              	db 8
   6  005D              	db 0
   6  005D              	db 2
   6  005E              	db 1
   6  005E              	db 81
   6  005F              	db 9
   6  005F              	db 6
   6  0060              	db 0
   6  0060              	db 50
   6  0061              	db 73
   6  0061              	db 121
   6  0062              	db 65
   6  0062              	db 62
   6  0063              	db 0
   6  0063              	db 126
   6  0064              	db 17
   6  0064              	db 17
   6  0065              	db 17
   6  0065              	db 126
   6  0066              	db 0
   6  0066              	db 127
   6  0067              	db 73
   6  0067              	db 73
   6  0068              	db 73
   6  0068              	db 54
   6  0069              	db 0
   6  0069              	db 62
   6  006A              	db 65
   6  006A              	db 65
   6  006B              	db 65
"File: headerFile/PCF8814_font.h  Assembler  Version HGASM0202      Page 17

   6  006B              	db 34
   6  006C              	db 0
   6  006C              	db 127
   6  006D              	db 65
   6  006D              	db 65
   6  006E              	db 34
   6  006E              	db 28
   6  006F              	db 0
   6  006F              	db 127
   6  0070              	db 73
   6  0070              	db 73
   6  0071              	db 73
   6  0071              	db 65
   6  0072              	db 0
   6  0072              	db 127
   6  0073              	db 9
   6  0073              	db 9
   6  0074              	db 9
   6  0074              	db 1
   6  0075              	db 0
   6  0075              	db 62
   6  0076              	db 65
   6  0076              	db 73
   6  0077              	db 73
   6  0077              	db 122
   6  0078              	db 0
   6  0078              	db 127
   6  0079              	db 8
   6  0079              	db 8
   6  007A              	db 8
   6  007A              	db 127
   6  007B              	db 0
   6  007B              	db 0
   6  007C              	db 65
   6  007C              	db 127
   6  007D              	db 65
   6  007D              	db 0
   6  007E              	db 0
   6  007E              	db 32
   6  007F              	db 64
   6  007F              	db 65
   6  0080              	db 63
   6  0080              	db 1
   6  0081              	db 0
   6  0081              	db 127
   6  0082              	db 8
   6  0082              	db 20
   6  0083              	db 34
   6  0083              	db 65
   6  0084              	db 0
   6  0084              	db 127
   6  0085              	db 64
   6  0085              	db 64
   6  0086              	db 64
   6  0086              	db 64
   6  0087              	db 0
   6  0087              	db 127
   6  0088              	db 2
   6  0088              	db 12
   6  0089              	db 2
"File: headerFile/PCF8814_font.h  Assembler  Version HGASM0202      Page 18

   6  0089              	db 127
   6  008A              	db 0
   6  008A              	db 127
   6  008B              	db 4
   6  008B              	db 8
   6  008C              	db 16
   6  008C              	db 127
   6  008D              	db 0
   6  008D              	db 62
   6  008E              	db 65
   6  008E              	db 65
   6  008F              	db 65
   6  008F              	db 62
   6  0090              	db 0
   6  0090              	db 127
   6  0091              	db 9
   6  0091              	db 9
   6  0092              	db 9
   6  0092              	db 6
   6  0093              	db 0
   6  0093              	db 62
   6  0094              	db 65
   6  0094              	db 81
   6  0095              	db 33
   6  0095              	db 94
   6  0096              	db 0
   6  0096              	db 127
   6  0097              	db 9
   6  0097              	db 25
   6  0098              	db 41
   6  0098              	db 70
   6  0099              	db 0
   6  0099              	db 70
   6  009A              	db 73
   6  009A              	db 73
   6  009B              	db 73
   6  009B              	db 49
   6  009C              	db 0
   6  009C              	db 1
   6  009D              	db 1
   6  009D              	db 127
   6  009E              	db 1
   6  009E              	db 1
   6  009F              	db 0
   6  009F              	db 63
   6  00A0              	db 64
   6  00A0              	db 64
   6  00A1              	db 64
   6  00A1              	db 63
   6  00A2              	db 0
   6  00A2              	db 31
   6  00A3              	db 32
   6  00A3              	db 64
   6  00A4              	db 32
   6  00A4              	db 31
   6  00A5              	db 0
   6  00A5              	db 63
   6  00A6              	db 64
   6  00A6              	db 56
   6  00A7              	db 64
"File: headerFile/PCF8814_font.h  Assembler  Version HGASM0202      Page 19

   6  00A7              	db 63
   6  00A8              	db 0
   6  00A8              	db 99
   6  00A9              	db 20
   6  00A9              	db 8
   6  00AA              	db 20
   6  00AA              	db 99
   6  00AB              	db 0
   6  00AB              	db 7
   6  00AC              	db 8
   6  00AC              	db 112
   6  00AD              	db 8
   6  00AD              	db 7
   6  00AE              	db 0
   6  00AE              	db 97
   6  00AF              	db 81
   6  00AF              	db 73
   6  00B0              	db 69
   6  00B0              	db 67
   6  00B1              	db 0
   6  00B1              	db 0
   6  00B2              	db 127
   6  00B2              	db 65
   6  00B3              	db 65
   6  00B3              	db 0
   6  00B4              	db 0
   6  00B4              	db 2
   6  00B5              	db 4
   6  00B5              	db 8
   6  00B6              	db 16
   6  00B6              	db 32
   6  00B7              	db 0
   6  00B7              	db 0
   6  00B8              	db 65
   6  00B8              	db 65
   6  00B9              	db 127
   6  00B9              	db 0
   6  00BA              	db 0
   6  00BA              	db 4
   6  00BB              	db 2
   6  00BB              	db 1
   6  00BC              	db 2
   6  00BC              	db 4
   6  00BD              	db 0
   6  00BD              	db 64
   6  00BE              	db 64
   6  00BE              	db 64
   6  00BF              	db 64
   6  00BF              	db 64
   6  00C0              	db 0
   6  00C0              	db 0
   6  00C1              	db 1
   6  00C1              	db 2
   6  00C2              	db 4
   6  00C2              	db 0
   6  00C3              	db 0
   6  00C3              	db 32
   6  00C4              	db 84
   6  00C4              	db 84
   6  00C5              	db 84
"File: headerFile/PCF8814_font.h  Assembler  Version HGASM0202      Page 20

   6  00C5              	db 120
   6  00C6              	db 0
   6  00C6              	db 127
   6  00C7              	db 72
   6  00C7              	db 68
   6  00C8              	db 68
   6  00C8              	db 56
   6  00C9              	db 0
   6  00C9              	db 56
   6  00CA              	db 68
   6  00CA              	db 68
   6  00CB              	db 68
   6  00CB              	db 32
   6  00CC              	db 0
   6  00CC              	db 56
   6  00CD              	db 68
   6  00CD              	db 68
   6  00CE              	db 72
   6  00CE              	db 127
   6  00CF              	db 0
   6  00CF              	db 56
   6  00D0              	db 84
   6  00D0              	db 84
   6  00D1              	db 84
   6  00D1              	db 24
   6  00D2              	db 0
   6  00D2              	db 8
   6  00D3              	db 126
   6  00D3              	db 9
   6  00D4              	db 1
   6  00D4              	db 2
   6  00D5              	db 0
   6  00D5              	db 12
   6  00D6              	db 82
   6  00D6              	db 82
   6  00D7              	db 82
   6  00D7              	db 62
   6  00D8              	db 0
   6  00D8              	db 127
   6  00D9              	db 8
   6  00D9              	db 4
   6  00DA              	db 4
   6  00DA              	db 120
   6  00DB              	db 0
   6  00DB              	db 0
   6  00DC              	db 68
   6  00DC              	db 125
   6  00DD              	db 64
   6  00DD              	db 0
   6  00DE              	db 0
   6  00DE              	db 32
   6  00DF              	db 64
   6  00DF              	db 68
   6  00E0              	db 61
   6  00E0              	db 0
   6  00E1              	db 0
   6  00E1              	db 127
   6  00E2              	db 16
   6  00E2              	db 40
   6  00E3              	db 68
"File: headerFile/PCF8814_font.h  Assembler  Version HGASM0202      Page 21

   6  00E3              	db 0
   6  00E4              	db 0
   6  00E4              	db 0
   6  00E5              	db 65
   6  00E5              	db 127
   6  00E6              	db 64
   6  00E6              	db 0
   6  00E7              	db 0
   6  00E7              	db 124
   6  00E8              	db 4
   6  00E8              	db 24
   6  00E9              	db 4
   6  00E9              	db 120
   6  00EA              	db 0
   6  00EA              	db 124
   6  00EB              	db 8
   6  00EB              	db 4
   6  00EC              	db 4
   6  00EC              	db 120
   6  00ED              	db 0
   6  00ED              	db 56
   6  00EE              	db 68
   6  00EE              	db 68
   6  00EF              	db 68
   6  00EF              	db 56
   6  00F0              	db 0
   6  00F0              	db 124
   6  00F1              	db 20
   6  00F1              	db 20
   6  00F2              	db 20
   6  00F2              	db 8
   6  00F3              	db 0
   6  00F3              	db 8
   6  00F4              	db 20
   6  00F4              	db 20
   6  00F5              	db 24
   6  00F5              	db 124
   6  00F6              	db 0
   6  00F6              	db 124
   6  00F7              	db 8
   6  00F7              	db 4
   6  00F8              	db 4
   6  00F8              	db 8
   6  00F9              	db 0
   6  00F9              	db 72
   6  00FA              	db 84
   6  00FA              	db 84
   6  00FB              	db 84
   6  00FB              	db 32
   6  00FC              	db 0
   6  00FC              	db 4
   6  00FD              	db 63
   6  00FD              	db 68
   6  00FE              	db 64
   6  00FE              	db 32
   6  00FF              	db 0
   6  00FF              	db 60
   6  0100              	db 64
   6  0100              	db 64
   6  0101              	db 32
"File: headerFile/PCF8814_font.h  Assembler  Version HGASM0202      Page 22

   6  0101              	db 124
   6  0102              	db 0
   6  0102              	db 28
   6  0103              	db 32
   6  0103              	db 64
   6  0104              	db 32
   6  0104              	db 28
   6  0105              	db 0
   6  0105              	db 60
   6  0106              	db 64
   6  0106              	db 48
   6  0107              	db 64
   6  0107              	db 60
   6  0108              	db 0
   6  0108              	db 68
   6  0109              	db 40
   6  0109              	db 16
   6  010A              	db 40
   6  010A              	db 68
   6  010B              	db 0
   6  010B              	db 12
   6  010C              	db 80
   6  010C              	db 80
   6  010D              	db 80
   6  010D              	db 60
   6  010E              	db 0
   6  010E              	db 68
   6  010F              	db 100
   6  010F              	db 84
   6  0110              	db 76
   6  0110              	db 68
   6  0111              	db 0
   6  0111              	db 0
   6  0112              	db 8
   6  0112              	db 54
   6  0113              	db 65
   6  0113              	db 0
   6  0114              	db 0
   6  0114              	db 0
   6  0115              	db 0
   6  0115              	db 127
   6  0116              	db 0
   6  0116              	db 0
   6  0117              	db 0
   6  0117              	db 0
   6  0118              	db 65
   6  0118              	db 54
   6  0119              	db 8
   6  0119              	db 0
   6  011A              	db 0
   6  011A              	db 16
   6  011B              	db 8
   6  011B              	db 8
   6  011C              	db 16
   6  011C              	db 8
   6  011D              	db 0
   6  011D              	db 0
   6  011E              	db 6
   6  011E              	db 9
   6  011F              	db 9
"File: headerFile/PCF8814_font.h  Assembler  Version HGASM0202      Page 23

   6  011F              	db 6
   6  0120              	db 0
   6  0120              	db -64
   6  0121              	db -64
   6  0121              	db -64
   6  0122              	db -64
   6  0122              	db -64
   6  0123              	db -64
   6  0123              	db 8
   6  0124              	db 24
   6  0124              	db 56
   6  0125              	db 63
   6  0125              	db 31
   6  0126              	db 63
   6  0126              	db 68
   6  0127              	db -10
   6  0127              	db 60
   6  0128              	db 28
   6  0128              	db 24
   6  0129              	db 0
   6  0129              #pragma debug struct_end
   6  0129              #pragma debug struct_end
   6  0129              #pragma debug union_end
   6  0129              #pragma debug union_end
   6  0129              #pragma debug variable 46 1 ___pb "__pb" 1
   6  0129              #pragma debug struct_end
   6  0129              #pragma debug struct_end
   6  0129              #pragma debug union_end
   6  0129              #pragma debug union_end
   6  0129              #pragma debug variable 48 1 ___pbc "__pbc" 1
   6  0129              extern _msDelay_2:byte
   6  0129              extern _msDelay:near
   6  0129              
   6  0129              ; 
   6  0129              ; Generated by holtek-gcc v3.19, Fri Mar 08 10:39:07 2024
   6  0129              ; Rebuild 718
   6  0129              ; end of file


        0 Errors, 0