"File: Timer.c       Assembler  Version HGASM0202      Page 1


   1  0000              ; Generated by holtek-gcc v3.19, Fri Mar 08 10:39:07 2024
   2  0000              ; 
   3  0000              ; Configuration:
   4  0000              ;       with long instruction
   5  0000              ;       Single ROM, Multi-RAM
   6  0000              ;       bits_per_rom_unit:16
   7  0000              ;       with mp1
   8  0000              ;       with tbhp, address(0x9)
   9  0000              ;          Use tabrd-const
  10  0000              ;       
  11  0000              ; SFR address of long-instruction arch:
  12  0000              ;    mp0 = -1,1,0
  13  0000              ;    mp1 = 4,3,2
  14  0000              ;    mp2 = 14,13,12
  15  0000              ;    tbp = 9,7,8
  16  0000              ;    acc = 5
  17  0000              ;    pcl = 6
  18  0000              ;    status = 10
  19  0000              ;    bp = 11
  20  0000              ;    intc = 16
  21  0000              ;       
  22  0000              ;       
  23  0000              ; use 'tabrdc' instead of 'tabrd'
  24  0000              ;       
  25  0000              
  26  0000              #pragma translator "holtek-gcc 4.6.4" "3.19" "build 20130711"
  27  0000              ; Rebuild 718
  28  0000              
  29  0000              ir equ [2]
  30  0000              mp equ [3]
  31  0000              sbp equ [4]
  32  0000              acc equ [5]
  33  0000              bp equ [11]
  34  0000              tblp equ [7]
  35  0000              tbhp equ [9]
  36  0000              status equ [10]
  37  0000              c equ [10].0
  38  0000              ac equ [10].1
  39  0000              z equ [10].2
  40  0000              ov equ [10].3
  41  0000              cz equ [10].6
  42  0000              sc equ [10].7
  43  0000              intc equ [16]
  44  0000              
  45  0000              extern ra:byte
  46  0000              extern rb:byte
  47  0000              extern rc:byte
  48  0000              extern rd:byte
  49  0000              extern re:byte
  50  0000              extern rf:byte
  51  0000              extern rg:byte
  52  0000              extern rh:byte
  53  0000              extern _Crom2Prom:near
  54  0000              extern _Crom2PromNext:near
  55  0000              
  56  0000              RAMBANK 0 @BITDATASEC, @BITDATASEC1
  57  0000              @HCCINIT	.section 'data'
  58  0000              @HCCINIT0	.section 'data'
  59  0000              @BITDATASEC	 .section 'data'
"File: Timer.ASM     Assembler  Version HGASM0202      Page 2

  60  0000              @BITDATASEC1	 .section 'data'
  61  0000              
  62  0000              #pragma debug scope 1 1
  63  0000              	extern __DELAY3:near
  64  0000              	extern __DELAYX3:near
  65  0000              	extern __DELAYX6:near
  66  0000              	extern __DELAYY5:near
  67  0000              	extern __DELAYY3:near
  68  0000              	extern _builtin_holtek_delay_2:byte
  69  0000              ___ctm0c0 equ [97]
  70  0000              ___ctm0c1 equ [98]
  71  0000              ___tmpc equ [50]
  72  0000              ___intc1 equ [17]
  73  0000              ___intc0 equ [16]
  74  0000              ___ctm0al equ [101]
  75  0000              ___ctm0ah equ [102]
  76  0000              public _initTimer
  77  0000              #pragma debug scope 2 1

  42  0000              #line 42 "d:\project\remote\srcFile\Timer.c"
  42  0000              _initTimer .section 'code'
  42  0000              _initTimer proc
  46  0000              #line 46 "d:\project\remote\srcFile\Timer.c"
  46  0000  33E1        	set [97].7
  48  0001              #line 48 "d:\project\remote\srcFile\Timer.c"
  48  0001  35E1        	clr [97].3
  50  0002              #line 50 "d:\project\remote\srcFile\Timer.c"
  50  0002  3661        	clr [97].4
  51  0003              #line 51 "d:\project\remote\srcFile\Timer.c"
  51  0003  36E1        	clr [97].5
  52  0004              #line 52 "d:\project\remote\srcFile\Timer.c"
  52  0004  3361        	set [97].6
  54  0005              #line 54 "d:\project\remote\srcFile\Timer.c"
  54  0005  3762        	clr [98].6
  55  0006              #line 55 "d:\project\remote\srcFile\Timer.c"
  55  0006  37E2        	clr [98].7
  57  0007              #line 57 "d:\project\remote\srcFile\Timer.c"
  57  0007  3262        	set [98].4
  58  0008              #line 58 "d:\project\remote\srcFile\Timer.c"
  58  0008  32E2        	set [98].5
  60  0009              #line 60 "d:\project\remote\srcFile\Timer.c"
  60  0009  35E2        	clr [98].3
  62  000A              #line 62 "d:\project\remote\srcFile\Timer.c"
  62  000A  3562        	clr [98].2
  64  000B              #line 64 "d:\project\remote\srcFile\Timer.c"
  64  000B  3062        	set [98].0
  67  000C              #line 67 "d:\project\remote\srcFile\Timer.c"
  67  000C  30B2        	set [50].1
  69  000D              #line 69 "d:\project\remote\srcFile\Timer.c"
  69  000D  3691        	clr [17].5
  70  000E              #line 70 "d:\project\remote\srcFile\Timer.c"
  70  000E  3491        	clr [17].1
  71  000F              #line 71 "d:\project\remote\srcFile\Timer.c"
  71  000F  3010        	set [16].0
  73  0010              #line 73 "d:\project\remote\srcFile\Timer.c"
  73  0010  0F50        	mov a,80
  73  0011  00E5        	mov [101],a
  74  0012              #line 74 "d:\project\remote\srcFile\Timer.c"
  74  0012  1F66        	clr [102]
  74  0013  0003        	ret
"File: Timer.c       Assembler  Version HGASM0202      Page 3

  74  0014              _initTimer endp
  74  0014              #line 74 "d:\project\remote\srcFile\Timer.c"
  74  0014              #pragma debug scope 1 1
  74  0014              ___pd equ [65]
  74  0014              public _startSendCode
  74  0014              #pragma debug scope 3 1
 114  0014              #line 114 "d:\project\remote\srcFile\Timer.c"
 114  0000              _startSendCode .section 'code'
 114  0000              _startSendCode proc
 114  0000  000C[           local _startSendCode_2 db 12 dup(?)	; 0,12
            00
            ]
 114  0000  0080     E  	mov ra,a
 114  0001  0080     R  	mov _startSendCode_2[0],a
 114  0002              #pragma debug variable 8 3 _startSendCode_2+0 "remoteCodeIndex"
 114  0002              #pragma debug scope 4 3
 114  0002              ;begin block, line: 114.-1
 114  0002              #pragma debug scope 5 4
 114  0002              ;begin block, line: 114.-1
 114  0002              #pragma debug variable 8 5 _startSendCode_2+5 "mask"
  90  0002              #line 90 "d:\project\remote\srcFile\Timer.c"
  90  0002  0700     E  	mov a,ra
  90  0003  0080     R  	mov _startSendCode_2[3],a
  90  0004  1F00     R  	clr _startSendCode_2[4]
  90  0005  0700     R  	mov a,_startSendCode_2[3]  
  90  0006  0080     E  	mov _builtin_holtek_mulhi3_2[0],a  
  90  0007  0700     R  	mov a,_startSendCode_2[4]  
  90  0008  0080     E  	mov _builtin_holtek_mulhi3_2[1],a
  90  0009  0F0E        	mov a,14  
  90  000A  0080     E  	mov _builtin_holtek_mulhi3_2[2],a  
  90  000B  1F00     E  	clr _builtin_holtek_mulhi3_2[3]
  90  000C  2000     E  	call _builtin_holtek_mulhi3
  90  000D  0700     E  	mov a,_builtin_holtek_mulhi3_2[4]  
  90  000E  0080     E  	mov rb,a  
  90  000F  0700     E  	mov a,_builtin_holtek_mulhi3_2[5]  
  90  0010  0080     E  	mov rc,a
  90  0011  0F00     R  	mov a,low offset _remoteTiming
  90  0012  0300     E  	add a,rb
  90  0013  0083        	mov mp,a
  90  0014  0F00     R  	mov a,high offset _remoteTiming
  90  0015  1300     E  	adc a,rc
  90  0016  0084        	mov sbp,a
  90  0017  2000     E  	call _Crom2Prom
  90  0018  0080     R  	mov _txCode[0],a
  90  0019  2000     E  	call _Crom2PromNext
  90  001A  0080     R  	mov _txCode[1],a
  91  001B              #line 91 "d:\project\remote\srcFile\Timer.c"
  91  001B  0F00     R  	mov a,low (offset _remoteTiming+2)
  91  001C  0300     E  	add a,rb
  91  001D  0083        	mov mp,a
  91  001E  0F00     R  	mov a,high (offset _remoteTiming+2)
  91  001F  1300     E  	adc a,rc
  91  0020  0084        	mov sbp,a
  91  0021  2000     E  	call _Crom2Prom
  91  0022  0080     R  	mov _txCode[2],a
  91  0023  2000     E  	call _Crom2PromNext
  91  0024  0080     R  	mov _txCode[3],a
  95  0025              #line 95 "d:\project\remote\srcFile\Timer.c"
  95  0025  340A        	clr c
  95  0026  1A00     R  	rlca _startSendCode_2[3]
"File: Timer.c       Assembler  Version HGASM0202      Page 4

  95  0027  0080     E  	mov rd,a
  95  0028  1A00     R  	rlca _startSendCode_2[4]
  95  0029  0080     E  	mov re,a
  95  002A  340A        	clr c
  95  002B  1A80     E  	rlc rd
  95  002C  1A80     E  	rlc re
  95  002D  0F00     R  	mov a,low offset _remoteData
  95  002E  0300     E  	add a,rd
  95  002F  0083        	mov mp,a
  95  0030  0F00     R  	mov a,high offset _remoteData
  95  0031  1300     E  	adc a,re
  95  0032  0084        	mov sbp,a
  95  0033  2000     E  	call _Crom2Prom
  95  0034  0080     R  	mov _startSendCode_2[6],a
  95  0035  2000     E  	call _Crom2PromNext
  95  0036  0080     R  	mov _startSendCode_2[7],a
  95  0037  2000     E  	call _Crom2PromNext
  95  0038  0080     R  	mov _startSendCode_2[8],a
  95  0039  2000     E  	call _Crom2PromNext
  95  003A  0080     R  	mov _startSendCode_2[9],a
  95  003B  0F18        	mov a,24
  95  003C  0080     E  	mov rh,a
  93  003D              #line 93 "d:\project\remote\srcFile\Timer.c"
  93  003D  0F02        	mov a,2
  93  003E  0080     E  	mov ra,a
  88  003F              #line 88 "d:\project\remote\srcFile\Timer.c"
  88  003F  1F00     R  	clr _startSendCode_2[5]
 100  0040              #line 100 "d:\project\remote\srcFile\Timer.c"
 100  0040  0700     E  	mov a,rb
 100  0041  0080     R  	mov _startSendCode_2[1],a
 100  0042  0700     E  	mov a,rc
 100  0043  0080     R  	mov _startSendCode_2[2],a
 100  0044  0F00     R  	mov a,low (offset _remoteTiming+4)
 100  0045  0300     E  	add a,rb
 100  0046  0080     R  	mov _startSendCode_2[10],a
 100  0047  0F00     R  	mov a,high (offset _remoteTiming+4)
 100  0048  1300     E  	adc a,rc
 100  0049  0080     R  	mov _startSendCode_2[11],a
 100  004A              _L6:
  95  004A              #line 95 "d:\project\remote\srcFile\Timer.c"
  95  004A  1F00     E  	clr rd
  95  004B  1F00     E  	clr re
  95  004C  0F80        	mov a,-128
  95  004D  0080     E  	mov rf,a
  95  004E  1F00     E  	clr rg
  95  004F  1400     R  	inca _startSendCode_2[5]
  95  0050  2800     R  	jmp _LI1
  95  0051              _LI2:
  95  0051  340A        	clr c
  95  0052  3C00     E  	sz rg.7
  95  0053  300A        	set c
  95  0054  1B80     E  	rrc rg
  95  0055  1B80     E  	rrc rf
  95  0056  1B80     E  	rrc re
  95  0057  1B80     E  	rrc rd
  95  0058              _LI1:
  95  0058  1785        	sdz acc
  95  0059  2800     R  	jmp _LI2
  95  005A  0700     R  	mov a,_startSendCode_2[6]  
  95  005B  0680     E  	andm a,rd  
"File: Timer.c       Assembler  Version HGASM0202      Page 5

  95  005C  0700     R  	mov a,_startSendCode_2[7]  
  95  005D  0680     E  	andm a,re  
  95  005E  0700     R  	mov a,_startSendCode_2[8]  
  95  005F  0680     E  	andm a,rf  
  95  0060  0700     R  	mov a,_startSendCode_2[9]  
  95  0061  0680     E  	andm a,rg
  96  0062              #line 96 "d:\project\remote\srcFile\Timer.c"
  96  0062  0700     E  	mov a,ra
  96  0063  0080     E  	mov rb,a
  96  0064  1F00     E  	clr rc
  95  0065              #line 95 "d:\project\remote\srcFile\Timer.c"
  95  0065  0700     E  	mov a,rd
  95  0066  0500     E  	or a,re
  95  0067  0500     E  	or a,rf
  95  0068  0500     E  	or a,rg
  95  0069  3D0A        	sz z
  95  006A  2800     R  	jmp _L3
  96  006B              #line 96 "d:\project\remote\srcFile\Timer.c"
  96  006B  340A        	clr c
  96  006C  1A00     E  	rlca rb
  96  006D  0080     E  	mov rf,a
  96  006E  1A00     E  	rlca rc
  96  006F  0080     E  	mov rg,a
  96  0070  0F00     R  	mov a,low (offset _remoteTiming+8)
  96  0071  0300     R  	add a,_startSendCode_2[1]
  96  0072  0083        	mov mp,a
  96  0073  0F00     R  	mov a,high (offset _remoteTiming+8)
  96  0074  1300     R  	adc a,_startSendCode_2[2]
  96  0075  0084        	mov sbp,a
  96  0076  2000     E  	call _Crom2Prom
  96  0077  0080     E  	mov rd,a
  96  0078  2000     E  	call _Crom2PromNext
  96  0079  0080     E  	mov re,a
  96  007A  0F00     R  	mov a,low offset _txCode
  96  007B  0300     E  	add a,rf
  96  007C  0083        	mov mp,a
  96  007D  0F00     R  	mov a,high offset _txCode
  96  007E  1300     E  	adc a,rg
  96  007F  0084        	mov sbp,a
  96  0080  0700     E  	mov a,rd
  96  0081  0082        	mov ir,a
  96  0082  1483        	inc mp
  96  0083  0700     E  	mov a,re
  96  0084  0082        	mov ir,a
  97  0085              #line 97 "d:\project\remote\srcFile\Timer.c"
  97  0085  0700     E  	mov a,rf
  97  0086  0080     E  	mov rb,a
  97  0087  0700     E  	mov a,rg
  97  0088  0080     E  	mov rc,a
  97  0089  0F00     R  	mov a,low (offset _remoteTiming+10)
  97  008A  0300     R  	add a,_startSendCode_2[1]
  97  008B  0083        	mov mp,a
  97  008C  0F00     R  	mov a,high (offset _remoteTiming+10)
  97  008D  1300     R  	adc a,_startSendCode_2[2]
  97  008E  0084        	mov sbp,a
  97  008F  2800     R  	jmp _L9
  97  0090              _L3:
 100  0090              #line 100 "d:\project\remote\srcFile\Timer.c"
 100  0090  340A        	clr c
 100  0091  1A00     E  	rlca rb
"File: Timer.c       Assembler  Version HGASM0202      Page 6

 100  0092  0080     E  	mov rf,a
 100  0093  1A00     E  	rlca rc
 100  0094  0080     E  	mov rg,a
 100  0095  0700     R  	mov a,_startSendCode_2[10]
 100  0096  0083        	mov mp,a
 100  0097  0700     R  	mov a,_startSendCode_2[11]
 100  0098  0084        	mov sbp,a
 100  0099  2000     E  	call _Crom2Prom
 100  009A  0080     E  	mov rd,a
 100  009B  2000     E  	call _Crom2PromNext
 100  009C  0080     E  	mov re,a
 100  009D  0F00     R  	mov a,low offset _txCode
 100  009E  0300     E  	add a,rf
 100  009F  0083        	mov mp,a
 100  00A0  0F00     R  	mov a,high offset _txCode
 100  00A1  1300     E  	adc a,rg
 100  00A2  0084        	mov sbp,a
 100  00A3  0700     E  	mov a,rd
 100  00A4  0082        	mov ir,a
 100  00A5  1483        	inc mp
 100  00A6  0700     E  	mov a,re
 100  00A7  0082        	mov ir,a
 101  00A8              #line 101 "d:\project\remote\srcFile\Timer.c"
 101  00A8  0700     E  	mov a,rf
 101  00A9  0080     E  	mov rb,a
 101  00AA  0700     E  	mov a,rg
 101  00AB  0080     E  	mov rc,a
 101  00AC  0F00     R  	mov a,low (offset _remoteTiming+6)
 101  00AD  0300     R  	add a,_startSendCode_2[1]
 101  00AE  0083        	mov mp,a
 101  00AF  0F00     R  	mov a,high (offset _remoteTiming+6)
 101  00B0  1300     R  	adc a,_startSendCode_2[2]
 101  00B1  0084        	mov sbp,a
 101  00B2              _L9:
 101  00B2  2000     E  	call _Crom2Prom
 101  00B3  0080     E  	mov rd,a
 101  00B4  2000     E  	call _Crom2PromNext
 101  00B5  0080     E  	mov re,a
 101  00B6  0F00     R  	mov a,low (offset _txCode+2)
 101  00B7  0300     E  	add a,rb
 101  00B8  0083        	mov mp,a
 101  00B9  0F00     R  	mov a,high (offset _txCode+2)
 101  00BA  1300     E  	adc a,rc
 101  00BB  0084        	mov sbp,a
 101  00BC  0700     E  	mov a,rd
 101  00BD  0082        	mov ir,a
 101  00BE  1483        	inc mp
 101  00BF  0700     E  	mov a,re
 101  00C0  0082        	mov ir,a
 103  00C1              #line 103 "d:\project\remote\srcFile\Timer.c"
 103  00C1  1480     R  	inc _startSendCode_2[5]
  93  00C2              #line 93 "d:\project\remote\srcFile\Timer.c"
  93  00C2  0F02        	mov a,2
  93  00C3  0380     E  	addm a,ra
  93  00C4  1780     E  	sdz rh
  93  00C5  2800     R  	jmp _L6
  93  00C6              #pragma debug scope 4 3
  93  00C6              #pragma debug scope 3 1
 117  00C6              #line 117 "d:\project\remote\srcFile\Timer.c"
 117  00C6  0700     R  	mov a,_startSendCode_2[3]  
"File: Timer.c       Assembler  Version HGASM0202      Page 7

 117  00C7  0080     E  	mov _builtin_holtek_mulhi3_2[0],a  
 117  00C8  0700     R  	mov a,_startSendCode_2[4]  
 117  00C9  0080     E  	mov _builtin_holtek_mulhi3_2[1],a
 117  00CA  0F0E        	mov a,14  
 117  00CB  0080     E  	mov _builtin_holtek_mulhi3_2[2],a  
 117  00CC  1F00     E  	clr _builtin_holtek_mulhi3_2[3]
 117  00CD  2000     E  	call _builtin_holtek_mulhi3
 117  00CE  0700     E  	mov a,_builtin_holtek_mulhi3_2[4]  
 117  00CF  0080     E  	mov rb,a  
 117  00D0  0700     E  	mov a,_builtin_holtek_mulhi3_2[5]  
 117  00D1  0080     E  	mov rc,a
 117  00D2  0F00     R  	mov a,low (offset _remoteTiming+12)
 117  00D3  0300     E  	add a,rb
 117  00D4  0083        	mov mp,a
 117  00D5  0F00     R  	mov a,high (offset _remoteTiming+12)
 117  00D6  1300     E  	adc a,rc
 117  00D7  0084        	mov sbp,a
 117  00D8  2000     E  	call _Crom2Prom
 117  00D9  0080     E  	mov rb,a
 117  00DA  2000     E  	call _Crom2PromNext
 117  00DB  0080     E  	mov rc,a
 117  00DC  0700     E  	mov a,rb
 117  00DD  0500     E  	or a,rc
 117  00DE  3D0A        	sz z
 117  00DF  2800     R  	jmp _L7
 118  00E0              #line 118 "d:\project\remote\srcFile\Timer.c"
 118  00E0  35E2        	clr [98].3
 118  00E1  2800     R  	jmp _L8
 118  00E2              _L7:
 120  00E2              #line 120 "d:\project\remote\srcFile\Timer.c"
 120  00E2  31E2        	set [98].3
 120  00E3              _L8:
 122  00E3              #line 122 "d:\project\remote\srcFile\Timer.c"
 122  00E3  0F50        	mov a,80
 122  00E4  00E5        	mov [101],a
 123  00E5              #line 123 "d:\project\remote\srcFile\Timer.c"
 123  00E5  1F66        	clr [102]
 124  00E6              #line 124 "d:\project\remote\srcFile\Timer.c"
 124  00E6  3441        	clr [65].0
 125  00E7              #line 125 "d:\project\remote\srcFile\Timer.c"
 125  00E7  37E1        	clr [97].7
 126  00E8              #line 126 "d:\project\remote\srcFile\Timer.c"
 126  00E8  31E1        	set [97].3
 127  00E9              #line 127 "d:\project\remote\srcFile\Timer.c"
 127  00E9  1F00     R  	clr _txCunter[0]
 128  00EA              #line 128 "d:\project\remote\srcFile\Timer.c"
 128  00EA  3091        	set [17].1
 128  00EB  0003        	ret
 128  00EC              _startSendCode endp
 128  00EC              #line 128 "d:\project\remote\srcFile\Timer.c"
 128  00EC              #pragma debug scope 1 1
 128  00EC              public _stopSendCode
 128  00EC              #pragma debug scope 6 1
 134  00EC              #line 134 "d:\project\remote\srcFile\Timer.c"
 134  0000              _stopSendCode .section 'code'
 134  0000              _stopSendCode proc
 135  0000              #line 135 "d:\project\remote\srcFile\Timer.c"
 135  0000  3041        	set [65].0
 136  0001              #line 136 "d:\project\remote\srcFile\Timer.c"
 136  0001  3491        	clr [17].1
"File: Timer.c       Assembler  Version HGASM0202      Page 8

 137  0002              #line 137 "d:\project\remote\srcFile\Timer.c"
 137  0002  35E1        	clr [97].3
 138  0003              #line 138 "d:\project\remote\srcFile\Timer.c"
 138  0003  33E1        	set [97].7
 138  0004  0003        	ret
 138  0005              _stopSendCode endp
 138  0005              #line 138 "d:\project\remote\srcFile\Timer.c"
 138  0005              #pragma debug scope 1 1
 138  0005              public _Timer
 138  0005              #pragma debug scope 7 1
 146  0005              #line 146 "d:\project\remote\srcFile\Timer.c"
 146  0000              @Timer_code .section at 20 'code'
 146  0000              ifdef INTERRUPT_DELAY
 146  0000              	nop
 146  0000              endif
 146  0000  0080     E  	mov r1,a
 146  0001  070A        	mov a,status
 146  0002              ifndef INTERRUPT_DELAY
 146  0002  0080     E  	mov r2,a
 146  0003              endif
 146  0003  2800     R  	jmp _Timer
 146  0004              #pragma debug scope 1 1
 146  0004              @dummy20 endp
 146  0004              #pragma debug scope 8 1
 146  0000              _Timer .section 'code'
 146  0000              _Timer proc
 146  0000              ifdef INTERRUPT_DELAY
 146  0000              	mov r2,a
 146  0000              endif
 146  0000  0703        	mov a,mp
 146  0001  0080     E  	mov r3,a
 146  0002  0704        	mov a,sbp
 146  0003  0080     E  	mov r4,a
 146  0004  0707        	mov a,tblp
 146  0005  0080     E  	mov r5,a
 146  0006  0709        	mov a,tbhp
 146  0007  0080     E  	mov r6,a
 147  0008              #line 147 "d:\project\remote\srcFile\Timer.c"
 147  0008  33E1        	set [97].7
 148  0009              #line 148 "d:\project\remote\srcFile\Timer.c"
 148  0009  3691        	clr [17].5
 151  000A              #line 151 "d:\project\remote\srcFile\Timer.c"
 151  000A  0F31        	mov a,49
 151  000B  0200     R  	sub a,_txCunter[0]
 151  000C  3C0A        	sz c
 151  000D  2800     R  	jmp _L13
 152  000E              #line 152 "d:\project\remote\srcFile\Timer.c"
 152  000E  1F00     R  	clr _txCunter[0]
 152  000F              _L13:
 154  000F              #line 154 "d:\project\remote\srcFile\Timer.c"
 154  000F  0700     R  	mov a,_txCunter[0]
 154  0010  0080     E  	mov ra,a
 154  0011  0700     E  	mov a,ra
 154  0012  0080     E  	mov rb,a
 154  0013  1F00     E  	clr rc
 154  0014  340A        	clr c
 154  0015  1A80     E  	rlc rb
 154  0016  1A80     E  	rlc rc
 154  0017  0F00     R  	mov a,low offset _txCode
 154  0018  0300     E  	add a,rb
"File: Timer.c       Assembler  Version HGASM0202      Page 9

 154  0019  0083        	mov mp,a
 154  001A  0F00     R  	mov a,high offset _txCode
 154  001B  1300     E  	adc a,rc
 154  001C  0084        	mov sbp,a
 154  001D  2000     E  	call _Crom2Prom
 154  001E  0080     E  	mov rb,a
 154  001F  2000     E  	call _Crom2PromNext
 154  0020  0080     E  	mov rc,a
 154  0021  0700     E  	mov a,rb
 154  0022  00E5        	mov [101],a
 155  0023              #line 155 "d:\project\remote\srcFile\Timer.c"
 155  0023  0700     E  	mov a,rc
 155  0024  00E6        	mov [102],a
 157  0025              #line 157 "d:\project\remote\srcFile\Timer.c"
 157  0025  1400     E  	inca ra
 157  0026  0080     R  	mov _txCunter[0],a
 160  0027              #line 160 "d:\project\remote\srcFile\Timer.c"
 160  0027  37E1        	clr [97].7
 160  0028  0700     E  	mov a,r2
 160  0029  008A        	mov status,a
 160  002A  0700     E  	mov a,r3
 160  002B  0083        	mov mp,a
 160  002C  0700     E  	mov a,r4
 160  002D  0084        	mov sbp,a
 160  002E  0700     E  	mov a,r5
 160  002F  0087        	mov tblp,a
 160  0030  0700     E  	mov a,r6
 160  0031  0089        	mov tbhp,a
 160  0032  1D05        	tabrdc acc
 160  0033  0700     E  	mov a,r1
 160  0034  0004        	reti
 160  0035              _Timer endp
 160  0035              
 160  0035              #line 160 "d:\project\remote\srcFile\Timer.c"
 160  0035              #pragma debug scope 1 1
 160  0035              public _remoteTiming
 160  0000              @crom	.section 'crom'
  18  0000              #line 18 "d:\project\remote\srcFile\Timer.c"
  18  0000              @crom	.section	'crom'
  18  0000              _remoteTiming:
  18  0000              #pragma debug array 42 12 7 1
  18  0000              #pragma debug array 42 12 7 1
  18  0000              #pragma debug array 43 42 4 1
  18  0000              #pragma debug array 43 42 4 1
  18  0000              #pragma debug variable 43 1 _remoteTiming "remoteTiming"
  18  0000  0006        	dc 6
  18  0001  00B1        	dc 177
  18  0002  0006        	dc 6
  18  0003  0011        	dc 17
  18  0004  0011        	dc 17
  18  0005  0006        	dc 6
  18  0006  0001        	dc 1
  18  0007  0006        	dc 6
  18  0008  00B1        	dc 177
  18  0009  0006        	dc 6
  18  000A  0011        	dc 17
  18  000B  0011        	dc 17
  18  000C  0006        	dc 6
  18  000D  0000        	dc 0
  18  000E  0006        	dc 6
"File: Timer.c       Assembler  Version HGASM0202      Page 10

  18  000F  00B1        	dc 177
  18  0010  0006        	dc 6
  18  0011  0011        	dc 17
  18  0012  0011        	dc 17
  18  0013  0006        	dc 6
  18  0014  0001        	dc 1
  18  0015  0006        	dc 6
  18  0016  00B1        	dc 177
  18  0017  0006        	dc 6
  18  0018  0011        	dc 17
  18  0019  0011        	dc 17
  18  001A  0006        	dc 6
  18  001B  0000        	dc 0
  18  001C              public _remoteData
  11  001C              #line 11 "d:\project\remote\srcFile\Timer.c"
  11  001C              @crom	.section	'crom'
  11  001C              _remoteData:
  11  001C              #pragma debug array 44 14 4 1
  11  001C              #pragma debug array 44 14 4 1
  11  001C              #pragma debug variable 44 1 _remoteData "remoteData"
  11  001C              	db -31
  11  001D              	db 20
  11  001D              	db 33
  11  001E              	db 0
  11  001E              	db -31
  11  001F              	db 20
  11  001F              	db 33
  11  0020              	db 0
  11  0020              	db -30
  11  0021              	db 20
  11  0021              	db 33
  11  0022              	db 0
  11  0022              	db -30
  11  0023              	db 20
  11  0023              	db 33
  11  0024              	db 0
  11  0000              @HCCINIT0_txCunter .section 'data'
  11  0000              _txCunter	db 0
  11  0001              #pragma debug variable 8 1 _txCunter "txCunter"
  11  0001              
  11  0000              @HCCINIT .section 'data'
  11  0000              @HCCINIT0_txCode .section 'data'
  11  0000  0064[       _txCode	db 100 dup(0)
            00
            ]
  11  0064              #pragma debug array 45 12 50 1
  11  0064              #pragma debug array 45 12 50 1
  11  0064              #pragma debug variable 45 1 _txCode "txCode"
  11  0064              
  11  0000              @HCCINIT .section 'data'
  11  0000              #pragma debug struct_end
  11  0000              #pragma debug struct_end
  11  0000              #pragma debug union_end
  11  0000              #pragma debug union_end
  11  0000              #pragma debug variable 47 1 ___intc0 "__intc0" 1
  11  0000              #pragma debug struct_end
  11  0000              #pragma debug struct_end
  11  0000              #pragma debug union_end
  11  0000              #pragma debug union_end
  11  0000              #pragma debug variable 49 1 ___intc1 "__intc1" 1
"File: Timer.c       Assembler  Version HGASM0202      Page 11

  11  0000              #pragma debug struct_end
  11  0000              #pragma debug struct_end
  11  0000              #pragma debug union_end
  11  0000              #pragma debug union_end
  11  0000              #pragma debug variable 51 1 ___tmpc "__tmpc" 1
  11  0000              #pragma debug struct_end
  11  0000              #pragma debug struct_end
  11  0000              #pragma debug union_end
  11  0000              #pragma debug union_end
  11  0000              #pragma debug variable 53 1 ___pd "__pd" 1
  11  0000              #pragma debug struct_end
  11  0000              #pragma debug struct_end
  11  0000              #pragma debug union_end
  11  0000              #pragma debug union_end
  11  0000              #pragma debug variable 55 1 ___ctm0c0 "__ctm0c0" 1
  11  0000              #pragma debug struct_end
  11  0000              #pragma debug struct_end
  11  0000              #pragma debug union_end
  11  0000              #pragma debug union_end
  11  0000              #pragma debug variable 57 1 ___ctm0c1 "__ctm0c1" 1
  11  0000              #pragma debug variable 8 1 ___ctm0al "__ctm0al" 1
  11  0000              #pragma debug variable 8 1 ___ctm0ah "__ctm0ah" 1
  11  0000              extern r1:byte
  11  0000              extern r2:byte
  11  0000              extern r3:byte
  11  0000              extern r4:byte
  11  0000              extern r5:byte
  11  0000              extern r6:byte
  11  0000              extern _builtin_holtek_mulhi3_2:byte
  11  0000              extern _builtin_holtek_mulhi3:near
  11  0000              
  11  0000              ; 
  11  0000              ; Generated by holtek-gcc v3.19, Fri Mar 08 10:39:07 2024
  11  0000              ; Rebuild 718
  11  0000              ; end of file


        0 Errors, 0